(dp1
S'GMST'
p2
(dp3
S'fAIInteriorSpectatorDistance'
p4
I15803253
sS'fDeathForceMassMult'
p5
I15804004
sS'fWortcraftChanceLuckDenom'
p6
I15804805
sS'fCombatSplashDamageMinDamage'
p7
I15803906
sS'fTrackXY'
p8
I15804711
sS'fCombatSearchCenterRadius'
p9
I15803867
sS'fCombatAcquireWeaponUnarmedDistanceMax'
p10
I15803422
sS'fRumblePainTime'
p11
I15804530
sS'fFollowExtraCatchUpSpeedMult'
p12
I15804102
sS'fVATSMeleeChanceMult'
p13
I15804745
sS'fAIEscortFastTravelMaxDistFromPath'
p14
I15803230
sS'fCombatCircleAngleMin'
p15
I15803514
sS'fTorchEvaluationTimer'
p16
I15804700
sS'fCombatAcquireWeaponCloseDistanceMax'
p17
I15803402
sS'fGameplayImpulseMinMass'
p18
I15804116
sS'iAICombatMinDetection'
p19
I15804823
sS'fStaggerShieldMult'
p20
I15804646
sS'fFavorCostUnlockDoor'
p21
I15804095
sS'iNumExplosionDecalCDPoint'
p22
I15804972
sS'fJumpMoveBase'
p23
I15804181
sS'fSkyCellRefProcessDistanceMult'
p24
I15804590
sS'fCombatFleeLastDoorRestrictTime'
p25
I15803671
sS'fCombatFlankingGoalAngleFarMax'
p26
I15803642
sS'fRelationshipBase'
p27
I15804510
sS'fSpeechcraftFavorMin'
p28
I15804617
sS'fSneakDistanceAttenuationExponent'
p29
I15804602
sS'fCombatInventoryDualWieldScorePenalty'
p30
I15803710
sS'fAIMaxSmileDistance'
p31
I15803261
sS'fAIIdleAnimationLargeCreatureDistanceMult3.000000'
p32
I15803249
sS'fAIDodgeWalkChance'
p33
I15803227
sS'fCombatIronSightsRangeMult'
p34
I15803735
sS'fKarmaModMurderingNonEvilCreature'
p35
I15804183
sS'fCombatAdvancePathRetryTime'
p36
I15803430
sS'fPickupWeaponRangedDistanceMin'
p37
I15804455
sS'iMinClipSizeToAddReloadDelay'
p38
I15804969
sS'fAIStayonScriptHeadtrack'
p39
I15803289
sS'fObjectHitTwoHandReach'
p40
I15804362
sS'fAISpectatorThreatDistExplosion'
p41
I15803285
sS'fCombatApproachTargetSlowdownUpdateTime'
p42
I15803446
sS'fLockpickBreakExpert'
p43
I15804218
sS'fKnockdownChance'
p44
I15804196
sS'fActorAnimZAdjust'
p45
I15803305
sS'iCurrentTargetBonus'
p46
I15804916
sS'fMagicTelekinesisMaxForce'
p47
I15804304
sS'iSoundLevelVeryLoud'
p48
I15805038
sS'fMapMarkerMaxPercentSize'
p49
I15804325
sS'fMagicTelekinesisComplexObjectDamping'
p50
I15804296
sS'iShockBranchSegmentsPerBolt'
p51
I15805022
sS'fCombatTargetLocationWidthSizeMult'
p52
I15803934
sS'iCrimeCommentNumber'
p53
I15804903
sS'fArrowBowMinTime'
p54
I15803334
sS'fCombatApproachTargetSprintStopRange'
p55
I15803449
sS'iActorLuckSkillBase'
p56
I15804833
sS'fCombatDetectionLostRemoveDistanceTime'
p57
I15803566
sS'fZKeyMaxForceScaleHigh'
p58
I15804815
sS'fPersBoastAggr'
p59
I15804386
sS'fCombatRangedAttackMaximumHoldTime'
p60
I15803854
sS'fPotionT1AleDurMult'
p61
I15804466
sS'fSandboxDurationMultSitting'
p62
I15804542
sS'fHealthRegenDelayMax'
p63
I15804155
sS'fCombatHideFailedTargetLOSDistance'
p64
I15803698
sS'fAIDodgeVerticalRangedAttackMult'
p65
I15803226
sS'iLargeProjectilePickCount'
p66
I15804952
sS'fProjectileReorientTracerMin'
p67
I15804488
sS'fCombatFleeAllyRadius'
p68
I15803663
sS'iMessageBoxMaxItems'
p69
I15804968
sS'fCombatCastImmediateOffensiveMagicHoldTimeMin'
p70
I15803510
sS'fCombatAttackMovingStrikeAngleMult'
p71
I15803471
sS'fKnockdownBaseHealthThreshold'
p72
I15804195
sS'fVoiceRateBase'
p73
I15804765
sS'fCombatAttackStrikeAngleMult'
p74
I15803474
sS'fProjectileDeflectionTime'
p75
I15804482
sS'fCombatMagicWardCooldownTime'
p76
I15803785
sS'fFriendHitTimer'
p77
I15804112
sS'iRegionGenClusterAttempts'
p78
I15805005
sS'fZKeyObjectDamping'
p79
I15804818
sS'fIntimidateConfidenceMultCowardly'
p80
I15804169
sS'fVATSCameraMinTime'
p81
I15804725
sS'fPickupWeaponUnarmedDistanceMax'
p82
I15804458
sS'fWortcraftStrCostDenom'
p83
I15804807
sS'fCombatDodgeBufferDistance'
p84
I15803605
sS'iWortcraftMaxEffectsMaster'
p85
I15805056
sS'fCombatMagicWardAttackReachMult'
p86
I15803784
sS'iBallisticProjectilePathPickSegments'
p87
I15804861
sS'fLockPickQualityBase'
p88
I15804210
sS'fWeaponTwoHandedAnimationSpeedMult'
p89
I15804798
sS'fExplosionMaxImpulse'
p90
I15804074
sS'fPickupWeaponTargetUnreachableDistanceMult'
p91
I15804457
sS'fCombatTargetLocationRadiusSizeMult'
p92
I15803929
sS'fWeatherCloudSpeedMax'
p93
I15804799
sS'iClassPriest'
p94
I15804879
sS'fCombatAcquireWeaponFindAmmoDistance'
p95
I15803409
sS'fCharacterControllerMultipleStepSpeed'
p96
I15803390
sS'fCombatInventoryRangedScoreMult'
p97
I15803726
sS'iClassBarbarian'
p98
I15804868
sS'iTrespassWarnings'
p99
I15805047
sS'iAVDhmsLevelup'
p100
I15804831
sS'fTargetSearchRadius'
p101
I15804679
sS'iRemoveExcessDeadComplexTotalActorCount'
p102
I15805018
sS'fArmorWeightLightMaxMod'
p103
I15803329
sS'fCombatTargetLocationMinDistanceMult'
p104
I15803927
sS'iXPLevelPickLockHard'
p105
I15805066
sS'fAIUseWeaponAnimationTimeoutSeconds'
p106
I15803292
sS'fExpressionChangePerSec'
p107
I15804077
sS'fConeProjectileForceMultLinear'
p108
I15803958
sS'fZKeyComplexHelperWeightMin'
p109
I15804811
sS'fCombatFlankingGoalCheckDistanceMin'
p110
I15803648
sS'iXPRewardSpeechChallengeEasy'
p111
I15805082
sS'fSplashSoundLight'
p112
I15804624
sS'fCombatStealthPointAttackedMaxValue'
p113
I15803909
sS'fGunDecalCameraDistance'
p114
I15804126
sS'fCombatPathingIncompletePathMinDistance'
p115
I15803823
sS'fCombatFindAttackLocationDistance'
p116
I15803625
sS'fCombatHoverAngleLimit'
p117
I15803700
sS'iRelationshipEnemyValue'
p118
I15805012
sS'iDismemberBloodDecalCount'
p119
I15804921
sS'fCombatInventoryMinEquipTimeShout'
p120
I15803719
sS'fEvaluateProcedureTimer'
p121
I15804068
sS'fBloodSplatterCountDamageMult'
p122
I15803371
sS'iCrimeGoldEscape'
p123
I15804908
sS'fCombatSearchUpdateTime'
p124
I15803891
sS'fRegionGenTexGenMatch'
p125
I15804504
sS'fIntimidateSpeechcraftCurve'
p126
I15804171
sS'fReservationExpirationSeconds'
p127
I15804518
sS'fCombatInventoryShieldEquipRange'
p128
I15803730
sS'fCombatCoverAttackTimeMax'
p129
I15803530
sS'fTimeSpanEveningStart'
p130
I15804687
sS'iClassBattlemage'
p131
I15804870
sS'fPersAdmireResp'
p132
I15804383
sS'iClassRogue'
p133
I15804880
sS'fActorLeaveWaterBreathTimer'
p134
I15803308
sS'fCombatFlankingStepDistanceMin'
p135
I15803659
sS'fExplosiveProjectileBlockedWaitTime'
p136
I15804076
sS'fStaggerRecoilingMult'
p137
I15804644
sS'fCombatMagicDefaultShortDuration'
p138
I15803760
sS'fCombatRestoreMagickaRestrictTime'
p139
I15803863
sS'fRumbleBlockStrength'
p140
I15804523
sS'fSunReduceGlareSpeed'
p141
I15804674
sS'fArrowMinVelocity'
p142
I15803345
sS'fLookDownDisableBlinkingAmt'
p143
I15804224
sS'iAllowRechargeDuringCombat'
p144
I15804837
sS'fAiAcquireStealMult'
p145
I15803320
sS'fCombatLowTargetHitPercent'
p146
I15803745
sS'fCombatInventoryResourceCurrentRequiredMult'
p147
I15803727
sS'fMasserSpeed'
p148
I15804332
sS'fCombatMaximumOptimalRangeMax'
p149
I15803792
sS'fCombatMagicDefaultMinCastTime'
p150
I15803759
sS'fFallLegDamageMult'
p151
I15804082
sS'fMagicCasterPCSkillCostMult'
p152
I15804242
sS'fGunSpreadNPCArmBase'
p153
I15804138
sS'fCombatSearchInteriorRadiusMin'
p154
I15803879
sS'fCombatStrafeMinDistanceRadiusMult'
p155
I15803919
sS'fDetectionUpdateTimeMin'
p156
I15804033
sS'fCombatDetectionLostCheckNoticedDistance'
p157
I15803564
sS'fArrowBowFastMult'
p158
I15803333
sS'fCombatCoverCheckCoverHeightOffset'
p159
I15803535
sS'iMagicLightMaxCount'
p160
I15804963
sS'fCombatDialogueHitDistanceMult'
p161
I15803591
sS'fSmithingWeaponMax'
p162
I15804594
sS'fMagicDefaultAccumulatingModifierEffectRate'
p163
I15804255
sS'fSubmergedMaxSpeed'
p164
I15804670
sS'fHazardMaxWaitTime'
p165
I15804151
sS'fCombatThreatCacheVelocityTime'
p166
I15803940
sS'fRechargeGoldMult'
p167
I15804500
sS'iMaxAttachedArrows'
p168
I15804965
sS'fCombatCircleAnglePlayerMult'
p169
I15803515
sS'iDispKaramMax'
p170
I15804922
sS'iArmorWeightHelmet'
p171
I15804852
sS'fSpeechCraftBase'
p172
I15804614
sS'fCombatTargetLocationWidthMax'
p173
I15803932
sS'fIronSightsFOVTimeChange'
p174
I15804174
sS'iNumberGuardsCrimeResponse'
p175
I15804976
sS'fCombatFleeTargetAvoidRadius'
p176
I15803672
sS'fCombatRangedAttackChanceMin'
p177
I15803849
sS'fCombatMagicArmorMinCastTime'
p178
I15803748
sS'fClothingArmorBase'
p179
I15803394
sS'fCombatInventoryMeleeEquipRange'
p180
I15803715
sS'iClassMonk'
p181
I15804876
sS'fLockLevelBase'
p182
I15804206
sS'fCombatFallbackDistanceMax'
p183
I15803615
sS'fCombatAcquireWeaponDisarmedDistanceMin'
p184
I15803406
sS'fCombatMagicCloakDistanceMin'
p185
I15803752
sS'fFavorEventStopDistance'
p186
I15804096
sS'fFavorCostAttack'
p187
I15804085
sS'fMagicTelekinesisDualCastDamageMult'
p188
I15804301
sS'fCombatAdvanceInnerRadiusMin'
p189
I15803427
sS'fPersBoastWillp'
p190
I15804393
sS'fLockTrapGoOffMult'
p191
I15804215
sS'fActorArmorDesirabilityDamageMult'
p192
I15803306
sS'fBloodSplatterCountDamageBase'
p193
I15803370
sS'fCombatClusterUpdateTime'
p194
I15803526
sS'fCombatTargetLocationCurrentReservationDistanceMult'
p195
I15803925
sS'fCombatStrafeChanceMax'
p196
I15803915
sS'fCameraShakeDistFadeStart'
p197
I15803384
sS'fGrenadeThrowHitFractionThreshold'
p198
I15804125
sS'fCombatMagicWardMinCastTime'
p199
I15803788
sS'fCombatOffensiveBashChanceMin'
p200
I15803813
sS'fCombatPathingStraightRayCastPathDistance'
p201
I15803836
sS'fMagicPostDrawCastDelay'
p202
I15804286
sS'fCombatDPSMeleeSpeedMult'
p203
I15803558
sS'fTimeSpanEveningEnd'
p204
I15804686
sS'fCombatPathingRefLocationUpdateTimeDistanceMin'
p205
I15803829
sS'fProjectileDefaultTracerRange'
p206
I15804481
sS'iClassThief'
p207
I15804884
sS'fCombatMagicReanimateRestrictTime'
p208
I15803777
sS'fCombatMeleeTrackTargetDistanceMin'
p209
I15803798
sS'fMagicEnchantmentDrainBase'
p210
I15804267
sS'fLockPickBreakBase'
p211
I15804208
sS'fPlayerHealthHeartbeatFast'
p212
I15804461
sS'fAIAcquireObjectDistance'
p213
I15803207
sS'fFriendMinimumLastHitTime'
p214
I15804113
sS'fSneakSizeBase'
p215
I15804606
sS'fStaggerBlockAttackBase'
p216
I15804637
sS'fArrowSpeedMult'
p217
I15803347
sS'fCombatRangedAttackHoldTimeMin'
p218
I15803852
sS'fAIMagicSpellMult'
p219
I15803255
sS'fAIActorPackTargetHeadTrackMod'
p220
I15803208
sS'iArmorWeightGauntlets'
p221
I15804850
sS'fCombatInventoryOptimalRangePercent'
p222
I15803725
sS'fCombatDialogueDeathDistanceMult'
p223
I15803586
sS'fPickNumBase'
p224
I15804437
sS'iInventoryAskQuantityAt'
p225
I15804949
sS'fExplosiveProjectileBlockedResetTime'
p226
I15804075
sS'fCombatRelativeDamageMod'
p227
I15803859
sS'iSprayDecalsDebug'
p228
I15805039
sS'fAIAimBlockedHalfCircleRadius'
p229
I15803209
sS'fSandBoxExtraDialogueRange'
p230
I15804536
sS'fMeleeSweepViewAngleMult'
p231
I15804338
sS'fCombatBackoffChance'
p232
I15803476
sS'fCombatFlyingAttackChanceMax'
p233
I15803678
sS'fRegionGenTexGenNotMatch'
p234
I15804505
sS'fCombatBlockChanceMin'
p235
I15803487
sS'fMagicTelekinesisThrow'
p236
I15804311
sS'fArrowWobbleAmplitude'
p237
I15803349
sS'fVATSTargetSelectCamPanTime'
p238
I15804760
sS'iClassCrusader'
p239
I15804872
sS'fCombatDodgeDecelerationMult'
p240
I15803608
sS'fAIUseWeaponToleranceDegrees'
p241
I15803293
sS'fCheckPositionFallDistance'
p242
I15803393
sS'fKillWitnessesTimerSetting'
p243
I15804189
sS'fMagicExplosionIncorporealMult'
p244
I15804271
sS'iArmorDamageGauntletsChance'
p245
I15804844
sS'fAIFaceTargetAnimationAngle'
p246
I15803239
sS'fCombatSplashDamageMinRadius'
p247
I15803907
sS'fCoverEvaluationLastSeenExpireTime'
p248
I15803965
sS'fDamageArmConditionMult'
p249
I15803989
sS'sVerletCape'
p250
I15805102
sS'fHitCasterSizeSmall'
p251
I15804157
sS'iXPRewardKillNPCVeryEasy'
p252
I15805078
sS'fCombatAcquireWeaponDisarmedTime'
p253
I15803407
sS'fAIMoveDistanceToRecalcFollowPath'
p254
I15803268
sS'fDistanceProjectileExplosionDetection'
p255
I15804049
sS'fLockpickBreakSkillBase'
p256
I15804221
sS'fCombatFleeAllyDistanceMin'
p257
I15803662
sS'fCombatStepAdvanceDistance'
p258
I15803914
sS'fPersJokeConf'
p259
I15804403
sS'fVATSShotBurstTime'
p260
I15804752
sS'fAlignEvilMaxKarma'
p261
I15803321
sS'fMagicChainExplosionEffectivenessDelta'
p262
I15804245
sS'fMagicTelekinesisThrowAccelerate'
p263
I15804312
sS'fCombatAimLastSeenLocationTimeLimit'
p264
I15803433
sS'fTrackMaxZ'
p265
I15804709
sS'fCrimePersonalRegardMult'
p266
I15803982
sS'fRumbleShakeTimeMult'
p267
I15804532
sS'fCombatCoverRangeMaxBufferDistance'
p268
I15803544
sS'fCombatCoverSearchDistanceMin'
p269
I15803549
sS'fMagickaReturnBase'
p270
I15804323
sS'fCombatMagicDisarmRestrictTime'
p271
I15803762
sS'fCombatAttackChanceBlockingMultMin'
p272
I15803462
sS'fCombatMoveToActorBufferDistance'
p273
I15803802
sS'fCombatFlankingDistanceMin'
p274
I15803641
sS'fBodyMorphWeaponAdjustMult'
p275
I15803373
sS'fSecundaZOffset'
p276
I15804562
sS'fAIMinAngleRangeToStartSceneDialogue'
p277
I15803266
sS'fCombatFlankingAngleOffset'
p278
I15803633
sS'fHazardDropMaxDistance'
p279
I15804150
sS'fStaggerAttackMult'
p280
I15804636
sS'iPickPocketWarnings'
p281
I15805000
sS'sKinectNotCalibrated'
p282
I15805099
sS'iClassWarrior'
p283
I15804885
sS'fFavorCostAttackCrimeMult'
p284
I15804086
sS'fCombatThreatUpdateTimeMin'
p285
I15803949
sS'fAIConversationExploreTime'
p286
I15803220
sS'iArrowMaxCount'
p287
I15804856
sS'fCombatThreatSignificantScore'
p288
I15803946
sS'fCombatSearchExteriorRadiusMin'
p289
I15803876
sS'fPersuasionAccuracyMaxSelect'
p290
I15804411
sS'fDetectionUpdateTimeMinComplex'
p291
I15804034
sS'fCombatDialogueGroupStrategyDistanceMult'
p292
I15803590
sS'fCombatFlightEffectiveDistance'
p293
I15803676
sS'fAIBestHeadTrackDistance'
p294
I15803212
sS'fStaggerBowAR'
p295
I15804638
sS'iCombatHoverLocationCount'
p296
I15804894
sS'fCoveredAdvanceMinAdvanceDistanceMin'
p297
I15803970
sS'fShoutTimeout'
p298
I15804587
sS'fCombatProjectileMaxRangeOptimalMult'
p299
I15803843
sS'fCombatDisarmedFindBetterWeaponTime'
p300
I15803595
sS'fMagicDiseaseTransferBase'
p301
I15804258
sS'fPersJokePers'
p302
I15804406
sS'iAINumberActorsComplexScene'
p303
I15804827
sS'fVATSThrownWeaponRangeMult'
p304
I15804762
sS'iProjectileMaxRefCount'
p305
I15805003
sS'fClothingJewelryScale'
p306
I15803398
sS'fCombatInventoryTorchEquipRange'
p307
I15803732
sS'fMagicTelekinesisObjectDamping'
p308
I15804308
sS'iCrimeRegardBaseValue'
p309
I15804914
sS'fAIRangedWeaponMult'
p310
I15803280
sS'iRegionGenClusterPasses'
p311
I15805006
sS'iPersuasionOuter'
p312
I15804996
sS'fAIExteriorSpectatorDistance'
p313
I15803238
sS'fEvaluatePackageTimer'
p314
I15804067
sS'fDefaultRelaunchInterval'
p315
I15804013
sS'iTrainingExpertSkill'
p316
I15805042
sS'fCombatPathingGoalRayCastPathDistance'
p317
I15803822
sS'fGunSpreadDriftBase'
p318
I15804133
sS'fDeathSoundMaxDistance'
p319
I15804005
sS'fCombatBlockTimeMin'
p320
I15803495
sS'iCombatUnloadedActorLastSeenTimeLimit'
p321
I15804899
sS'fMagickaRegenDelayMax'
p322
I15804322
sS'fTrackEyeXY'
p323
I15804704
sS'fQuestCinematicObjectivePauseTime'
p324
I15804496
sS'fMagicDefaultCEBarterFactor'
p325
I15804256
sS'fCombatDetectionLostTimeLimit'
p326
I15803568
sS'iPerkLightArmorMasterMinSum'
p327
I15804981
sS'fMagicCasterSkillCostBase'
p328
I15804243
sS'fCombatAimProjectileRandomOffset'
p329
I15803438
sS'fCombatMaintainOptimalDistanceMaxAngle'
p330
I15803789
sS'fEffectShaderFillEdgeMinFadeRate'
p331
I15804053
sS'iAimingNumIterations'
p332
I15804835
sS'fVATSSmartCameraCheckStepCount'
p333
I15804754
sS'sKinectAllyTooFarToTrade'
p334
I15805097
sS'fMagicExplosionPowerMin'
p335
I15804275
sS'iAlertAgressionMin'
p336
I15804836
sS'fChaseDetectionTimerSetting'
p337
I15803391
sS'fFavorCostStealObjectMult'
p338
I15804092
sS'fTipImpulse'
p339
I15804699
sS'fAIMeleeArmorMult'
p340
I15803263
sS'fCombatSearchCheckDestinationDistanceMid'
p341
I15803869
sS'fPersuasionBaseValueMaxSelect'
p342
I15804415
sS'fCombatSearchCheckDestinationDistanceMin'
p343
I15803870
sS'fBlockSkillBase'
p344
I15803368
sS'fTreeTrunkToFoliageMultiplier'
p345
I15804714
sS'fPersBullyStre'
p346
I15804400
sS'fVATSCamTransRBRampDown'
p347
I15804722
sS'iVoicePointsDefault'
p348
I15805051
sS'fMagicAreaScale'
p349
I15804231
sS'fAIExteriorSpectatorDetection'
p350
I15803237
sS'fBleedoutCheck'
p351
I15803366
sS'fVATSMeleeReachMult'
p352
I15804747
sS'fDetectionActionTimer'
p353
I15804023
sS'fCombatForwardAttackChance'
p354
I15803684
sS'iNumberActorsAllowedToFollowPlayer'
p355
I15804973
sS'fCombatBlockTimeMid'
p356
I15803494
sS'fPersAdmirePers'
p357
I15804382
sS'fStaggerMaxDuration'
p358
I15804643
sS'fCombatStealthPointRegenAlertWaitTime'
p359
I15803912
sS'iWeaponCriticalHitDropChance'
p360
I15805052
sS'fCombatDetectionLostRemoveDistance'
p361
I15803565
sS'iShockNumBolts'
p362
I15805024
sS'fSecundaAngleShadowEarlyFade'
p363
I15804560
sS'fCombatSpecialAttackChanceMax'
p364
I15803903
sS'fCombatCircleDistantChanceMax'
p365
I15803519
sS'fCombatHoverChanceMin'
p366
I15803704
sS'fCombatMagicConcentrationAimVariance'
p367
I15803754
sS'fPersuasionShape'
p368
I15804426
sS'fFavorCostOwnedDoorMult'
p369
I15804089
sS'fPersAdmireAggr'
p370
I15804378
sS'fModelReferenceEffectMaxWaitTime'
p371
I15804345
sS'fCombatMagicLightMinCastTime'
p372
I15803769
sS'fMagicCasterTargetUpdateInterval'
p373
I15804244
sS'iRelationshipAllyValue'
p374
I15805009
sS'fDetectionNightEyeBonus'
p375
I15804029
sS'fCombatPathingLookAheadDelta'
p376
I15803825
sS'fCombatBlockAttackChanceMin'
p377
I15803483
sS'fRockitDamageBonusWeightMin'
p378
I15804520
sS'fPhysicsDamageSpeedBase'
p379
I15804432
sS'fArrowMinPower'
p380
I15803343
sS'fUnarmedCreatureDPSMult'
p381
I15804716
sS'fShockBoltsLength'
p382
I15804569
sS'fFastTravelSpeedMult'
p383
I15804083
sS'fLoadingWheelScale'
p384
I15804205
sS'fReEquipArmorTime'
p385
I15804499
sS'fGameplayImpulseMultTrap'
p386
I15804117
sS'fAIDistanceTeammateDrawWeapon'
p387
I15803223
sS'fCombatPathingRefLocationUpdateTimeMax'
p388
I15803830
sS'fPerkLightArmorMasterRatingMult'
p389
I15804376
sS'fCombatSplashDamageMaxSpeed'
p390
I15803905
sS'fVATSSafetyMaxTime'
p391
I15804750
sS'fAIMaxWanderTime'
p392
I15803262
sS'iXPLevelSpeechChallengeVeryEasy'
p393
I15805072
sS'fCreatureDefaultTurningSpeed'
p394
I15803971
sS'fAutoAimMaxDegreesVATS'
p395
I15803357
sS'fAvoidPlayerDistance'
p396
I15803360
sS'fFleeDoneDistanceExterior'
p397
I15804098
sS'fCombatMagicArmorDistanceMin'
p398
I15803747
sS'fMapQuestMarkerMinFadeAlpha'
p399
I15804329
sS'fCombatFallbackMinMovementDistance'
p400
I15803618
sS'fPlayerHealthHeartbeatSlow'
p401
I15804462
sS'fCombatSearchDoorDistanceLow'
p402
I15803873
sS'fCombatFlankingDirectionGoalAngleOffset'
p403
I15803637
sS'fCombatCoverEdgeOffsetDistance'
p404
I15803536
sS'fPersuasionMinDispostion'
p405
I15804422
sS'fConeProjectileForceMult'
p406
I15803956
sS'fCombatMonitorBuffsTimer'
p407
I15803801
sS'iAICombatMaxAllySummonCount'
p408
I15804822
sS'fCombatTargetLocationMaxDistance'
p409
I15803926
sS'fKillMoveMaxDuration'
p410
I15804188
sS'fCombatThreatExtrudeTime'
p411
I15803943
sS'fCombatCoverMaxRangeMult'
p412
I15803538
sS'fSecundaSpeed'
p413
I15804561
sS'iArmorWeightBoots'
p414
I15804848
sS'fActorWeaponDesirabilitySkillMult'
p415
I15803314
sS'fCombatPerchAttackChanceMin'
p416
I15803839
sS'fKnockbackDamageBase'
p417
I15804192
sS'fCombatBlockAttackStrikeAngleMult'
p418
I15803485
sS'fGameplayImpulseScale'
p419
I15804118
sS'fPersuasionMinInput'
p420
I15804423
sS'fRumbleHitBlockedTime'
p421
I15804526
sS'fCoverFiringReloadClipPercent'
p422
I15803967
sS'iShockDebug'
p423
I15805023
sS'fAlignVeryEvilMaxKarma'
p424
I15803325
sS'fAttributeClassPrimaryBonus'
p425
I15803353
sS'fCombatStealthPointMax'
p426
I15803911
sS'fMagicTelekinesisThrowMax'
p427
I15804313
sS'iWortcraftMaxEffectsApprentice'
p428
I15805053
sS'fMagicBoltOptimalDistance'
p429
I15804239
sS'fMagicBallMaximumDistance'
p430
I15804232
sS'fMagicTelekinesisDamageMult'
p431
I15804300
sS'fMagicTelekinesisMoveBase'
p432
I15804306
sS'fCombatRangedAttackChanceMax'
p433
I15803848
sS'fAISpectatorThreatDistMelee'
p434
I15803286
sS'fCombatMusicGroupThreatRatioMin'
p435
I15803804
sS'fAICombatUnreachableTargetPriorityMult'
p436
I15803218
sS'fDamageStrengthBase'
p437
I15803993
sS'fPickNumMult'
p438
I15804438
sS'fCombatFollowRadiusMin'
p439
I15803682
sS'fCombatTargetLocationPathingRadius'
p440
I15803928
sS'fPlayerTargetCombatDistance'
p441
I15804464
sS'fPersuasionMaxSelect'
p442
I15804421
sS'fExplosionForceKnockdownMinimum'
p443
I15804070
sS'fFavorCostActivator'
p444
I15804084
sS'fMagicCloudSpeedBase'
p445
I15804252
sS'fMagicEnchantmentChargeMult'
p446
I15804266
sS'fCombatMagicImmediateAimVariance'
p447
I15803766
sS'fCombatTargetEngagedLastSeenTime'
p448
I15803923
sS'fCombatShoutMaxHeadTrackingAngle'
p449
I15803898
sS'fCombatFlankingGoalAngleFarMaxDistance'
p450
I15803643
sS'fGunSpreadWalkBase'
p451
I15804141
sS'fAIAimBlockedToleranceDegrees'
p452
I15803210
sS'iSoulLevelValueGrand'
p453
I15805032
sS'fCombatDialogueFleeMaxElapsedTime'
p454
I15803588
sS'fWeaponClutterKnockMinClutterMass'
p455
I15804777
sS'fEssentialNPCMinimumHealth'
p456
I15804065
sS'fCombatRestoreStopCastThreshold'
p457
I15803864
sS'fPersAdmireIntel'
p458
I15804381
sS'fDeathForceMassBase'
p459
I15804003
sS'fPickSpring4'
p460
I15804445
sS'fPickSpring5'
p461
I15804446
sS'fPickSpring2'
p462
I15804443
sS'fPickSpring3'
p463
I15804444
sS'fPickSpring1'
p464
I15804442
sS'fDamageArmConditionBase'
p465
I15803988
sS'fRepairSkillBase'
p466
I15804517
sS'fCombatOptimalRangeMaxBufferDistance'
p467
I15803814
sS'fVATSTargetScanRotateMult'
p468
I15804759
sS'fAIRandomizeInitialLocationMinRadius'
p469
I15803278
sS'fStaggerMassOffsetMult'
p470
I15804642
sS'fCombatFallbackChanceMax'
p471
I15803613
sS'fTimeSpanMorningStart'
p472
I15804691
sS'fCrimeRegardMult'
p473
I15803983
sS'fSandboxEnergyMultSitting'
p474
I15804550
sS'fItemRepairCostMult'
p475
I15804176
sS'fFavorCostStealContainerMult'
p476
I15804091
sS'fObjectHitWeaponReach'
p477
I15804363
sS'fCombatCoverRangeMinBufferDistance'
p478
I15803546
sS'fPersuasionMaxDisposition'
p479
I15804419
sS'fCombatInventoryShoutMaxRecoveryTime'
p480
I15803731
sS'fCombatFleeDistanceInterior'
p481
I15803667
sS'fLargeProjectilePickBufferSize'
p482
I15804199
sS'iRelationshipAcquaintanceValue'
p483
I15805008
sS'fCombatFlankingDirectionOffsetCostMult'
p484
I15803638
sS'iPerkMarksmanKnockdownChance'
p485
I15804982
sS'fCombatCastImmediateOffensiveMagicChanceMin'
p486
I15803507
sS'fPickupWeaponMeleeDistanceMin'
p487
I15804451
sS'fSneakDetectionSizeLarge'
p488
I15804598
sS'fCombatBlockStopDistanceMax'
p489
I15803491
sS'fCombatMagicDualCastInterruptTime'
p490
I15803765
sS'fHostileFlyingActorExteriorDistance'
p491
I15804162
sS'fGunSpreadWalkMult'
p492
I15804142
sS'fCombatDialogueBashDistanceMult'
p493
I15803581
sS'fCombatThreatViewCone'
p494
I15803950
sS'fDeadReactionDistance'
p495
I15804002
sS'iHairColor08'
p496
I15804938
sS'iHairColor09'
p497
I15804939
sS'fKillCamLevelMaxBias'
p498
I15804187
sS'fRockitDamageBonusWeightMult'
p499
I15804521
sS'iHairColor03'
p500
I15804933
sS'iHairColor00'
p501
I15804930
sS'fStaminaBlockStaggerMult'
p502
I15804647
sS'iHairColor06'
p503
I15804936
sS'iHairColor07'
p504
I15804937
sS'iHairColor04'
p505
I15804934
sS'iHairColor05'
p506
I15804935
sS'fCombatFlankingGoalCheckDistanceMult'
p507
I15803649
sS'fCombatInventoryMinEquipTimeWeapon'
p508
I15803722
sS'fCombatSearchAreaUpdateTime'
p509
I15803866
sS'iAttackOnSightNonViolent'
p510
I15804857
sS'fStatsStarScale'
p511
I15804663
sS'fSpellCastingDetectionMod'
p512
I15804619
sS'fCombatFindAllyAttackLocationDistanceMin'
p513
I15803623
sS'fWeaponBashSkillUseBase'
p514
I15804770
sS'fRelationshipMult'
p515
I15804511
sS'fCombatAdvanceRadiusStaggerMult'
p516
I15803431
sS'fMagickaReturnMult'
p517
I15804324
sS'fCombatAnticipatedLocationCheckDistance'
p518
I15803443
sS'fCombatDistanceMin'
p519
I15803597
sS'fArrowWobblePeriod'
p520
I15803352
sS'iCrimeGoldMinValue'
p521
I15804909
sS'fSandBoxDelayEvalSeconds'
p522
I15804535
sS'fVATSMeleeArmConditionMult'
p523
I15804744
sS'fPhysicsDamage2Damage'
p524
I15804428
sS'fStagger1WeapAR'
p525
I15804631
sS'fAISpectatorThreatDistRanged'
p526
I15803288
sS'fBowZoomStaminaRegenDelay'
p527
I15803376
sS'fCombatOrbitTimeMax'
p528
I15803816
sS'fMinesBlinkSlow'
p529
I15804344
sS'fCombatMusicUpdateTime'
p530
I15803811
sS'fFollowWalkMaxSpeedupMultiplier'
p531
I15804108
sS'iCrimeGoldPickpocket'
p532
I15804911
sS'iAINPCRacePowerChance'
p533
I15804826
sS'fAiAcquirePickMult'
p534
I15803318
sS'fSubmergedMaxWaterDistance'
p535
I15804671
sS'fWeaponConditionReloadJam10'
p536
I15804788
sS'fCombatAttackMovingAttackDistance'
p537
I15803469
sS'fQuestCinematicObjectiveScrollTime'
p538
I15804497
sS'fActorLuckSkillMult'
p539
I15803309
sS'fAIShoutRetryDelaySeconds'
p540
I15803282
sS'sGenericCraftKeywordName09'
p541
I15805093
sS'fCombatGuardRadiusMin'
p542
I15803693
sS'fCombatBlockStartDistanceMin'
p543
I15803490
sS'iPersuasionAngleMin'
p544
I15804985
sS'fTimeSpanSunsetStart'
p545
I15804697
sS'fCombatFallbackWaitTimeMin'
p546
I15803620
sS'fMagicDualCastingCostBase'
p547
I15804261
sS'fCombatRangedAttackChanceLastAttackBonus'
p548
I15803846
sS'fSandboxBreakfastMin'
p549
I15804540
sS'iArmorBaseSkill'
p550
I15804841
sS'fCombatMagicDefaultLongDuration'
p551
I15803758
sS'fCombatStealthPointRegenLostWaitTime'
p552
I15803913
sS'fCombatFindLateralAttackLocationIntervalMin'
p553
I15803631
sS'fCombatAttackChanceMin'
p554
I15803467
sS'fTeammateAggroOnDistancefromPlayer'
p555
I15804680
sS'fCombatPathingNormalizedRotationSpeed'
p556
I15803826
sS'fAiAcquireKillBase'
p557
I15803315
sS'fVATSGrenadeChanceMult'
p558
I15804730
sS'fCombatDialogueAllyKilledDistanceMult'
p559
I15803574
sS'fWeaponConditionReloadJam4'
p560
I15804791
sS'fWeaponConditionReloadJam5'
p561
I15804792
sS'fWeaponConditionReloadJam6'
p562
I15804793
sS'fWeaponConditionReloadJam7'
p563
I15804794
sS'fSubSegmentVariance'
p564
I15804665
sS'fWeaponConditionReloadJam2'
p565
I15804789
sS'fWeaponConditionReloadJam3'
p566
I15804790
sS'fMagicBarrierSpacing'
p567
I15804236
sS'fArrowFakeMass'
p568
I15803336
sS'fWeaponConditionReloadJam9'
p569
I15804796
sS'iStealWarnings'
p570
I15805041
sS'fCombatFlankingRotateAngle'
p571
I15803654
sS'fObjectHitH2HReach'
p572
I15804361
sS'fActionPointsFOVBase'
p573
I15803301
sS'fHorseMountOffsetX'
p574
I15804158
sS'fCameraShakeDistFadeDelta'
p575
I15803383
sS'fActorWeaponDesirabilityDamageMult'
p576
I15803313
sS'fCombatAvoidThreatsChance'
p577
I15803475
sS'fValueofItemForNoOwnership'
p578
I15804763
sS'iCrimeMaxNumberofDaysinJail'
p579
I15804913
sS'fPersBullyPers'
p580
I15804398
sS'iXPLevelPickLockVeryHard'
p581
I15805068
sS'fBuoyancyMultBody'
p582
I15803381
sS'fCombatGroupCombatStrengthUpdateTime'
p583
I15803690
sS'fCombatFlankingMaxTurnAngleGoal'
p584
I15803652
sS'fWeaponBashMin'
p585
I15804767
sS'fPotionT1CalDurMult'
p586
I15804468
sS'fFavorCostUnlockContainer'
p587
I15804094
sS'iSoulLevelValueCommon'
p588
I15805031
sS'fClothingBase'
p589
I15803395
sS'fCombatDetectionNoticedDistanceLimit'
p590
I15803571
sS'iDialogueDispositionFriendValue'
p591
I15804920
sS'fHandHealthMax'
p592
I15804147
sS'iXPLevelHackComputerHard'
p593
I15805061
sS'fDetectEventDistancePlayer'
p594
I15804018
sS'fSpellCastingDetectionHitActorMod'
p595
I15804618
sS'fCombatDialogueBleedOutMaxElapsedTime'
p596
I15803582
sS'fEyePitchMinOffsetEmotionAngry'
p597
I15804080
sS'fCombatDodgeAcceptableThreatScoreMult'
p598
I15803603
sS'fCombatSearchLocationInvestigateDistance'
p599
I15803884
sS'fConeProjectileForceMultAngular'
p600
I15803957
sS'fPersAdmireStre'
p601
I15804384
sS'fCombatFleeCoverSearchRadius'
p602
I15803665
sS'fMagicTelekinesisComplexMaxForce'
p603
I15804295
sS'fCombatHitConeAngle'
p604
I15803699
sS'fCombatPerchMaxTargetAngle'
p605
I15803841
sS'fCombatApproachTargetSlowdownVelocityAngle'
p606
I15803447
sS'fFollowStopZoneMinMult'
p607
I15804107
sS'fCombatSelectTargetSwitchUpdateTime'
p608
I15803893
sS'fMinesBlinkMax'
p609
I15804343
sS'fCombatBoltStickDepth'
p610
I15803496
sS'fCombatCoverCheckCoverHeightMin'
p611
I15803534
sS'fExplosionLOSBuffer'
p612
I15804072
sS'fCombatMagicConcentrationMinCastTime'
p613
I15803756
sS'fCombatAimProjectileGroundMinRadius'
p614
I15803437
sS'iSoulLevelValueGreater'
p615
I15805033
sS'fBarterSellMax'
p616
I15803363
sS'fAIFleeConfMult'
p617
I15803242
sS'fGrabMaxWeightWalking'
p618
I15804122
sS'iClassNightblade'
p619
I15804877
sS'fDetectionCommentTimer'
p620
I15804025
sS'fCameraShakeMultMin'
p621
I15803388
sS'iCrimeGoldTrespass'
p622
I15804912
sS'fSayOncePerDayInfoTimer'
p623
I15804557
sS'fAICombatSlopeDifference'
p624
I15803216
sS'iFriendHitNonCombatAllowed'
p625
I15804927
sS'fCombatSelectTargetUpdateTime'
p626
I15803894
sS'fQuestCinematicCharacterFadeOut'
p627
I15804491
sS'fGunSpreadHeadBase'
p628
I15804134
sS'fExpressionStrengthAdd'
p629
I15804078
sS'fPersuasionBaseValueMinSelect'
p630
I15804417
sS'fCombatMusicNearCombatOuterRadius'
p631
I15803807
sS'sGenericCraftKeywordName01'
p632
I15805085
sS'fDetectionEventExpireTime'
p633
I15804026
sS'fCombatSearchLocationCheckDistance'
p634
I15803881
sS'sGenericCraftKeywordName04'
p635
I15805088
sS'fVATSGrenadeTargetMelee'
p636
I15804737
sS'fRumbleHitStrength'
p637
I15804527
sS'fVATSSkillFactor'
p638
I15804753
sS'fSmallBumpSpeed'
p639
I15804591
sS'iMaxArrowsInQuiver'
p640
I15804964
sS'fPotionT2AleDurMult'
p641
I15804473
sS'fCombatFlankingLocationGridSize'
p642
I15803650
sS'fFollowSlowdownZoneWidth'
p643
I15804105
sS'iPersuasionMiddle'
p644
I15804995
sS'fCombatMagicInvisibilityMinCastTime'
p645
I15803768
sS'fAICombatTargetUnreachablePriorityMult'
p646
I15803217
sS'fCombatDPSBowSpeedMult'
p647
I15803557
sS'fActorTeleportFadeSeconds'
p648
I15803312
sS'iDistancetoAttackedTarget'
p649
I15804923
sS'fCombatCoverLedgeOffsetDistance'
p650
I15803537
sS'fPickupWeaponMeleeWeaponDPSMult'
p651
I15804452
sS'fArrowBounceLinearSpeed'
p652
I15803331
sS'iHairColor15'
p653
I15804945
sS'iHairColor14'
p654
I15804944
sS'fCombatInventoryUpdateTimer'
p655
I15803733
sS'iHairColor11'
p656
I15804941
sS'iHairColor10'
p657
I15804940
sS'iHairColor13'
p658
I15804943
sS'iHairColor12'
p659
I15804942
sS'fLowMagickaTutorialPercentage'
p660
I15804227
sS'fFleeDoneDistanceInterior'
p661
I15804099
sS'fDamageSkillMin'
p662
I15803992
sS'fDaytimeColorExtension'
p663
I15804001
sS'fCrimeDispMurder'
p664
I15803974
sS'fCombatDiveBombChanceMin'
p665
I15803599
sS'fSpecialLootMinZoneLevelBase'
p666
I15804613
sS'iShockBranchNumBolts'
p667
I15805021
sS'fStatsHealthLevelMult'
p668
I15804650
sS'fCombatInventoryDesiredRangeScoreMultMin'
p669
I15803709
sS'fCombatInventoryDesiredRangeScoreMultMid'
p670
I15803708
sS'iXPLevelSpeechChallengeHard'
p671
I15805071
sS'iPersuasionBribeScale'
p672
I15804989
sS'fCombatFindAttackLocationAvoidTargetRadius'
p673
I15803624
sS'fRumbleShakeRadiusMult'
p674
I15804531
sS'iVATSConcentratedFireBonus'
p675
I15805050
sS'fPersJokeIntel'
p676
I15804405
sS'fBribeMult'
p677
I15803379
sS'fResistArrestTimer'
p678
I15804519
sS'fCombatEffectiveDistanceAnticipateTime'
p679
I15803611
sS'fCombatMagicReanimateMinCastTime'
p680
I15803776
sS'iHorseTurnDegreesPerSecond'
p681
I15804946
sS'fTimeSpanNightEnd'
p682
I15804692
sS'iAINumberDaysToStayBribed'
p683
I15804828
sS'iFloraEmptyAlpha'
p684
I15804925
sS'fCombatMagicTacticalDuration'
p685
I15803781
sS'fCrimeDispTresspass'
p686
I15803978
sS'fCombatThreatExtrudeVelocityThreshold'
p687
I15803944
sS'fCombatGroundAttackChanceMin'
p688
I15803689
sS'fProjectileCollisionImpulseScale'
p689
I15804480
sS'iCombatCrippledTorsoHitStaggerChance'
p690
I15804889
sS'fArrowWobbleCurve'
p691
I15803350
sS'fAIMaxHeadTrackDistance'
p692
I15803258
sS'fCombatFlankingStalkRange'
p693
I15803655
sS'iAINumberDaysToStayIntimidated'
p694
I15804829
sS'fProjectileKnockMinMass'
p695
I15804483
sS'fImpactShaderMinMagnitude'
p696
I15804165
sS'fWortcraftChanceIntDenom'
p697
I15804804
sS'fDefaultMass'
p698
I15804012
sS'fPickupWeaponRangedMeleeDPSRatioThreshold'
p699
I15804456
sS'fMagicCloudLifeScale'
p700
I15804249
sS'fCombatActiveCombatantAttackRangeDistance'
p701
I15803424
sS'fBowDrawTime'
p702
I15803374
sS'iAvoidHurtingNonTargetsResponsibility'
p703
I15804860
sS'fAIIdleAnimationLargeCreatureDistanceMult'
p704
I15803248
sS'fCombatFleeDoorTargetCheckDistance'
p705
I15803669
sS'fSubmergedLODDistance'
p706
I15804667
sS'iAllyHitNonCombatAllowed'
p707
I15804840
sS'fShockSegmentVariance'
p708
I15804585
sS'fSummonedCreatureSearchRadius'
p709
I15804673
sS'fAIEscortWaitDistanceExterior'
p710
I15803233
sS'fMagicLesserPowerCooldownTimer'
p711
I15804282
sS'fCombatAttackChanceLastAttackBonusTime'
p712
I15803465
sS'sHide_'
p713
I15805095
sS'fZKeyHeavyWeight'
p714
I15804812
sS'iXPRewardSpeechChallengeHard'
p715
I15805083
sS'fMagicTelekinesisLiftPowerMult'
p716
I15804303
sS'fCombatSearchStartWaitTime'
p717
I15803890
sS'fRepairMax'
p718
I15804514
sS'fCombatMaximumRange'
p719
I15803796
sS'fCombatAreaStandardRadius'
p720
I15803457
sS'fCombatCircleChanceMax'
p721
I15803516
sS'fCombatFollowSneakFollowRadius'
p722
I15803683
sS'fStatsStarLookAtX'
p723
I15804660
sS'fCombatFlankingAngleOffsetCostMult'
p724
I15803634
sS'fDamageUnarmedPenalty'
p725
I15803995
sS'fSprayDecalsGravity'
p726
I15804629
sS'fProjectileMaxDistance'
p727
I15804487
sS'fMagicGrabActorThrowForce'
p728
I15804281
sS'fCombatDodgeChanceMin'
p729
I15803607
sS'fSneakDetectionSizeSmall'
p730
I15804600
sS'fCombatShoutHeadTrackingAngleMult'
p731
I15803896
sS'iAIFleeMaxHitCount'
p732
I15804825
sS'fCombatInventoryResourceDesiredRequiredMult'
p733
I15803728
sS'iClassKnight'
p734
I15804874
sS'fWeaponBlockSkillUseBase'
p735
I15804772
sS'iUpdateESMVersion'
p736
I15805048
sS'fZKeyComplexHelperMinDistance'
p737
I15804808
sS'fDetectionCombatNonTargetDistanceMult'
p738
I15804024
sS'fMagicTelekinesisSpringElasticity'
p739
I15804310
sS'fCrimeFavorMult'
p740
I15803979
sS'fCombatAimProjectileUpdateTime'
p741
I15803439
sS'fEssentialHealthPercentReGain'
p742
I15804064
sS'fDangerousProjectileExplosionRadius'
p743
I15804000
sS'fStatsStarLookAtZ'
p744
I15804662
sS'fAIPowerAttackKnockdownBonus'
p745
I15803274
sS'fStatsStarLookAtY'
p746
I15804661
sS'fDialogZoomOutSeconds'
p747
I15804039
sS'fMagicCloudDurationMin'
p748
I15804247
sS'fLockpickBreakNovice'
p749
I15804220
sS'fSneakDetectionSizeNormal'
p750
I15804599
sS'fSplashScale1'
p751
I15804621
sS'fSplashScale2'
p752
I15804622
sS'fAILockDoorsSeenRecentlySeconds'
p753
I15803254
sS'fGunSpreadCrouchBase'
p754
I15804132
sS'fSneakStealthBoyMult'
p755
I15804607
sS'fActionPointsAttackMagic'
p756
I15803299
sS'fMagicCloudSpeedScale'
p757
I15804253
sS'fCombatHoverAngleMax'
p758
I15803701
sS'fSplashScale3'
p759
I15804623
sS'fPotionT3CalMagMult'
p760
I15804477
sS'fCombatAimMeleeUpdateTime'
p761
I15803435
sS'iLockLevelMaxAverage'
p762
I15804957
sS'fAIAwareofPlayerTimer'
p763
I15803211
sS'fCameraShakeExplosionDistMult'
p764
I15803386
sS'fAIExplosiveWeaponRangeMult'
p765
I15803236
sS'fCombatInventoryEquipmentMinScoreMult'
p766
I15803711
sS'fSummonDistanceCheckThreshold'
p767
I15804672
sS'fVATSTargetActorHeightPanMult'
p768
I15804756
sS'fCombatAreaStandardCheckViewConeDistanceMin'
p769
I15803455
sS'fPersBoastStre'
p770
I15804392
sS'iRelationshipConfidantValue'
p771
I15805011
sS'fDOFDistanceMult'
p772
I15803987
sS'fCombatMagicDualCastChance'
p773
I15803764
sS'fCombatFleeUseDoorChance'
p774
I15803674
sS'fCombatMagicBuffDuration'
p775
I15803750
sS'fMagicTelekinesisMoveAccelerate'
p776
I15804305
sS'fStatsHealthStartMult'
p777
I15804651
sS'fCombatCoverWaitTimeMax'
p778
I15803554
sS'fHostileActorInteriorDistance'
p779
I15804161
sS'fRumblePainStrength'
p780
I15804529
sS'fWeaponBashPCMin'
p781
I15804769
sS'fCombatMagicProjectileFiringArc'
p782
I15803774
sS'fAICommentTimeWindow'
p783
I15803219
sS'fCombatChangeProcessFaceTargetDistance'
p784
I15803512
sS'fEnemyHealthBarTimer'
p785
I15804062
sS'fTakeBackTimerSetting'
p786
I15804675
sS'fHandHealthMin'
p787
I15804148
sS'fCombatAttackChanceBlockingSwingMult'
p788
I15803463
sS'fCombatTargetLocationSwimmingOffset'
p789
I15803931
sS'fCombatFallbackMaxAngle'
p790
I15803617
sS'fSandboxDurationMultWandering'
p791
I15804544
sS'fPotionT2RetDurMult'
p792
I15804475
sS'fCombatAreaStandardAttackedTime'
p793
I15803453
sS'fGetHitPainMult'
p794
I15804120
sS'fCombatTargetLocationAvoidNodeRadiusOffset'
p795
I15803924
sS'fAlignMinKarma'
p796
I15803324
sS'fLowHealthTutorialPercentage'
p797
I15804225
sS'fMagicExplosionPowerMult'
p798
I15804276
sS'fSneakEquippedWeightMult'
p799
I15804604
sS'fAIFleeHealthMult'
p800
I15803243
sS'fCombatSearchRadiusBufferDistance'
p801
I15803887
sS'fCombatBackoffMinDistanceMult'
p802
I15803477
sS'iClassWitchhunter'
p803
I15804886
sS'fCombatAcquireWeaponCloseDistanceMin'
p804
I15803403
sS'fLightRecalcTimerPlayer'
p805
I15804204
sS'fDemandMult'
p806
I15804016
sS'fCombatShoutShortRecoveryTime'
p807
I15803900
sS'fDifficultyDefaultValue'
p808
I15804043
sS'iXPRewardKillOpponent'
p809
I15805080
sS'iLockLevelMaxEasy'
p810
I15804958
sS'fMeleeMovementRestrictionsUpdateTime'
p811
I15804337
sS'fShockCoreColorR'
p812
I15804580
sS'fVATSTargetTimeUpdateMult'
p813
I15804761
sS'fCombatMagicWardMagickaCastLimit'
p814
I15803786
sS'fShockCoreColorG'
p815
I15804579
sS'fShockCoreColorB'
p816
I15804578
sS'fMagicVACPartTargetedMult'
p817
I15804321
sS'fMapQuestMarkerMinPercentSize'
p818
I15804330
sS'iPersuasionDemandScale'
p819
I15804993
sS'fCombatShoutReleaseTime'
p820
I15803899
sS'fCombatDetectionDialogueMinElapsedTime'
p821
I15803562
sS'fCombatCoverSecondaryThreatMinDistance'
p822
I15803552
sS'fCombatPathingStartRayCastPathDistance'
p823
I15803834
sS'fCombatLandingAvoidActorRadius'
p824
I15803738
sS'fAIEnergyLevelBase'
p825
I15803228
sS'iLevelUpReminder'
p826
I15804955
sS'fDetectionStateExpireTime'
p827
I15804030
sS'fAIHorseSearchDistance'
p828
I15803246
sS'fPersBullyResp'
p829
I15804399
sS'iShockSegmentsPerBolt'
p830
I15805025
sS'fCombatInventoryMinEquipTimeMagic'
p831
I15803718
sS'fVATSGrenadeRangeMin'
p832
I15804732
sS'fCombatMusicGroupThreatRatioTimer'
p833
I15803805
sS'fTargetMovedRepathLengthLow'
p834
I15804678
sS'fSandboxSleepStartMin'
p835
I15804556
sS'fCombatFlankingMaxTurnAngle'
p836
I15803651
sS'fCombatAttackCheckTargetRangeDistance'
p837
I15803468
sS'fCombatAcquireWeaponUnarmedDistanceMin'
p838
I15803423
sS'iAttractModeIdleTime'
p839
I15804859
sS'fCombatStrafeDistanceMax'
p840
I15803917
sS'iCrimeEnemyCoolDownTimer'
p841
I15804905
sS'fQuestCinematicCharacterRemain'
p842
I15804492
sS'fVATSTargetFOVMinFOV'
p843
I15804758
sS'fFollowerSpacingAtDoors'
p844
I15804111
sS'fPersJokeAggr'
p845
I15804402
sS'fCombatMagicConcentrationFiringArcMult'
p846
I15803755
sS'fQuestCinematicObjectiveFadeInDelay'
p847
I15804494
sS'fCombatDetectionLowDetectionDistance'
p848
I15803569
sS'fCombatIronSightsDistance'
p849
I15803734
sS'fCrimeAlarmRespMult'
p850
I15803972
sS'fCombatFlankingGoalAngleFarMin'
p851
I15803644
sS'fArrowMinBowVelocity'
p852
I15803341
sS'fCombatAdvanceLastDamagedThreshold'
p853
I15803428
sS'fDebrisFadeTime'
p854
I15804006
sS'fExplosionForceClutterUpBias'
p855
I15804069
sS'fShieldBashSkillUseBase'
p856
I15804565
sS'fPersuasionAccuracyMinSelect'
p857
I15804413
sS'fCombatFlankingNearDistance'
p858
I15803653
sS'fCombatStealthPointDetectedEventMaxValue'
p859
I15803910
sS'fCombatMagicSummonMinCastTime'
p860
I15803779
sS'fAIPowerAttackCreatureChance'
p861
I15803273
sS'fCombatPathingCurvedPathSmoothingMult'
p862
I15803820
sS'fDistanceAutomaticallyActivateDoor'
p863
I15804045
sS'fCombatThreatNegativeExtrudeTime'
p864
I15803945
sS'fMovementTargetAvoidCost'
p865
I15804355
sS'fSpeechcraftFavorMax'
p866
I15804616
sS'fSeenDataUpdateRadius'
p867
I15804563
sS'fLockPickBreakMult'
p868
I15804209
sS'fCombatBlockMaxTargetRetreatVelocity'
p869
I15803488
sS'fTrackEyeZ'
p870
I15804705
sS'iCrimeAlarmLowRecDistance'
p871
I15804901
sS'fAiAcquireKillMult'
p872
I15803316
sS'fEmbeddedWeaponSwitchChance'
p873
I15804055
sS'fCombatMaximumProjectileRange'
p874
I15803795
sS'iDetectEventLightLevelInterior'
p875
I15804919
sS'fCombatInventoryMaxRangeEquippedBonus'
p876
I15803713
sS'fPersuasionBaseValueMaxDisposition'
p877
I15804414
sS'fAIDistanceRadiusMinLocation'
p878
I15803222
sS'iArmorDamageBootsChance'
p879
I15804842
sS'fCombatAcquireWeaponEnchantmentChargeMult'
p880
I15803408
sS'fCameraShakeDistMin'
p881
I15803385
sS'fAIFindBedChairsDistance'
p882
I15803240
sS'fAIDodgeFavorLeftRightMult'
p883
I15803225
sS'fAlignGoodMinKarma'
p884
I15803322
sS'fBarterBuyMin'
p885
I15803362
sS'fSneakNoticeMin'
p886
I15804605
sS'fEmbeddedWeaponSwitchTime'
p887
I15804056
sS'fQuestCinematicObjectiveFadeIn'
p888
I15804493
sS'fVATSStealthMult'
p889
I15804755
sS'fPerkLightArmorNoviceDamageMult'
p890
I15804377
sS'iPersuasionDemandGold'
p891
I15804991
sS'fMagicExplosionClutterMult'
p892
I15804270
sS'fSpecialLootMaxZoneLevelBase'
p893
I15804611
sS'iXPLevelHackComputerEasy'
p894
I15805060
sS'fCombatBashChanceMin'
p895
I15803479
sS'iCombatFlankingAngleOffsetCount'
p896
I15804890
sS'fCombatRangedAttackHoldTimeAbsoluteMin'
p897
I15803850
sS'fCombatAttackChanceLastAttackBonus'
p898
I15803464
sS'fCombatCastImmediateOffensiveMagicHoldTimeMax'
p899
I15803509
sS'fCombatHideCheckViewConeDistanceMin'
p900
I15803696
sS'fMapQuestMarkerMaxPercentSize'
p901
I15804328
sS'fCombatSearchExteriorRadiusMax'
p902
I15803875
sS'fPersBoastConf'
p903
I15804387
sS'fHandDamageStrengthBase'
p904
I15804145
sS'fCombatSearchIgnoreLocationRadius'
p905
I15803877
sS'fCombatFlankingStalkTimeMax'
p906
I15803656
sS'fVATSMoveCameraMaxSpeed'
p907
I15804748
sS'iCombatSearchDoorFailureMax'
p908
I15804895
sS'fCombatFlankingDistanceMax'
p909
I15803640
sS'fBribeNPCLevelMult'
p910
I15803380
sS'fAItalktoNPCtimer'
p911
I15803297
sS'fArrowBounceBlockPercentage'
p912
I15803330
sS'fPickupWeaponUnarmedDistanceMin'
p913
I15804459
sS'fAItalktosameNPCtimer'
p914
I15803298
sS'fEffectShaderParticleMinFadeRate'
p915
I15804054
sS'fRegionObjectDensityPower'
p916
I15804509
sS'fStatsCameraNearDistance'
p917
I15804649
sS'iClassCharactergenClass'
p918
I15804871
sS'fCombatFlankingStepDistanceMax'
p919
I15803658
sS'iXPLevelHackComputerVeryHard'
p920
I15805063
sS'fMagicTrackingMultBolt'
p921
I15804317
sS'iSecondsToSleepPerUpdate'
p922
I15805020
sS'fMagicResistTargetWillpowerBase'
p923
I15804290
sS'fDetectionViewCone'
p924
I15804035
sS'fPotionT1MagMult'
p925
I15804470
sS'fRumbleHitBlockedStrength'
p926
I15804525
sS'fCombatDamageScale'
p927
I15803559
sS'fCombatKillMoveDamageMult'
p928
I15803737
sS'fVATSAutomaticMeleeDamageMult'
p929
I15804720
sS'fExplosionKnockStateExplodeDownTime'
p930
I15804071
sS'fLightRecalcTimer'
p931
I15804203
sS'fDetectionLargeActorSizeMult'
p932
I15804028
sS'fCombatAcquirePickupAnimationDelay'
p933
I15803399
sS'fMagicBoltDuration'
p934
I15804237
sS'fCombatHideCheckViewConeDistanceMax'
p935
I15803695
sS'fCombatPathingRotationAccelerationMult'
p936
I15803833
sS'fCombatUnreachableTargetCheckTime'
p937
I15803951
sS'fCombatInventoryEquippedScoreBonus'
p938
I15803712
sS'fMagicTelekinesisComplexSpringDamping'
p939
I15804297
sS'fGameplaySpeakingEmotionMaxChangeValue'
p940
I15804119
sS'iXPRewardKillNPCAverage'
p941
I15805075
sS'fSandboxDurationRangeMult'
p942
I15804545
sS'iLevItemLevelDifferenceMax'
p943
I15804954
sS'fFollowWalkZoneMult'
p944
I15804110
sS'fCombatMagicBoundItemDistance'
p945
I15803749
sS'fPotionT3RetMagMult'
p946
I15804478
sS'fCombatGrenadeBounceTimeMax'
p947
I15803686
sS'iDebrisMaxCount'
p948
I15804917
sS'fModifiedTargetAttackRange'
p949
I15804346
sS'fAIIdleWaitTimeComplexScene'
p950
I15803250
sS'fEnchantingSkillCostBase'
p951
I15804058
sS'fActionPointsAttackRanged'
p952
I15803300
sS'iHorseTurnDegreesRampUpPerSecond'
p953
I15804947
sS'fCombatEnvironmentBloodChance'
p954
I15803612
sS'fFollowMatchSpeedZoneWidth'
p955
I15804103
sS'fActorSwimBreathBase'
p956
I15803311
sS'fCombatPathingUpdatePathCostMult'
p957
I15803837
sS'iKarmaMin'
p958
I15804951
sS'iCombatTargetLocationCount'
p959
I15804897
sS'fDamageWeaponMult'
p960
I15803996
sS'fCombatDodgeReactionTime'
p961
I15803610
sS'fCombatAimMeleeHighPriorityUpdateTime'
p962
I15803434
sS'fMagicExplosionIncorporealTime'
p963
I15804272
sS'iShockSubSegments'
p964
I15805026
sS'fConstructibleSkilluseExp'
p965
I15803964
sS'fHandDamageStrengthMult'
p966
I15804146
sS'fSmithingArmorMax'
p967
I15804592
sS'fSprayDecalsDistance'
p968
I15804628
sS'iLockLevelMaxVeryHard'
p969
I15804961
sS'fCombatThreatTimedExplosionLength'
p970
I15803947
sS'fCombatCoverAttackTimeMin'
p971
I15803532
sS'fCombatCastConcentrationOffensiveMagicCastTimeMin'
p972
I15803501
sS'fMagicBallOptimalDistance'
p973
I15804233
sS'fCombatCoverAttackTimeMid'
p974
I15803531
sS'fKarmaModMurderingNonEvilNPC'
p975
I15804184
sS'fCombatFlankingGoalCheckDistanceMax'
p976
I15803647
sS'fCombatSearchLookTime'
p977
I15803886
sS'fDangerousProjectileExplosionDamage'
p978
I15803999
sS'fCrimeWitnessRegardMult'
p979
I15803986
sS'iBoneLODDistMult'
p980
I15804863
sS'fArmorRatingPCBase'
p981
I15803328
sS'fZKeyMaxContactMassRatio'
p982
I15804814
sS'fJumpMoveMult'
p983
I15804182
sS'fDangerousObjectExplosionRadius'
p984
I15803998
sS'fCombatAcquireWeaponDisarmedDistanceMax'
p985
I15803405
sS'fCombatFollowRadiusBase'
p986
I15803681
sS'fCombatAcquireWeaponScoreCostMult'
p987
I15803416
sS'fShockBoltsRadiusStrength'
p988
I15804571
sS'fCombatCoverWaitLookOffsetDistance'
p989
I15803553
sS'fCombatDialogueAvoidThreatMinElapsedTime'
p990
I15803580
sS'fVATSSafetyMaxTimeRanged'
p991
I15804751
sS'fDetectionUpdateTimeMax'
p992
I15804031
sS'fMagicBoltSegmentLength'
p993
I15804240
sS'iArmorDamageGreavesChance'
p994
I15804845
sS'fPickupItemDistanceFudge'
p995
I15804448
sS'fPickPocketAmountBase'
p996
I15804439
sS'fMagicDefaultTouchDistance'
p997
I15804257
sS'fPickPocketWeightBase'
p998
I15804441
sS'fMinesBlinkFast'
p999
I15804342
sS'fPersuasionMaxInput'
p1000
I15804420
sS'fCombatAcquireWeaponScoreRatioMax'
p1001
I15803417
sS'fCombatCoverReservationWidthMult'
p1002
I15803547
sS'fHandDamageSkillBase'
p1003
I15804143
sS'iHairColor01'
p1004
I15804931
sS'fCombatFindAllyAttackLocationAllyRadius'
p1005
I15803621
sS'fArrowGravityMin'
p1006
I15803338
sS'fTimeSpanMorningEnd'
p1007
I15804690
sS'fPersBoastPers'
p1008
I15804390
sS'fShockBranchLifetime'
p1009
I15804574
sS'fCombatFleeInitialDoorRestrictChance'
p1010
I15803670
sS'fWeaponConditionJam10'
p1011
I15804780
sS'iRelationshipRivalValue'
p1012
I15805016
sS'fCombatTargetLocationWidthMin'
p1013
I15803933
sS'fActorStrengthEncumbranceMult'
p1014
I15803310
sS'fLockpickSkillSweetSpotBase'
p1015
I15804223
sS'fAIFleeConfBase'
p1016
I15803241
sS'fStaggerMassBase'
p1017
I15804640
sS'fCombatFlightMinimumRange'
p1018
I15803677
sS'fIdleMarkerAngleTolerance'
p1019
I15804163
sS'fPhysicsDamage1Damage'
p1020
I15804427
sS'fEnchantingCostExponent'
p1021
I15804057
sS'fCombatCoverAttackOffsetDistance'
p1022
I15803529
sS'fRumbleBlockTime'
p1023
I15804524
sS'fSpecialLootMaxPCLevelMult'
p1024
I15804610
sS'fPersBullyIntel'
p1025
I15804397
sS'fCombatDialoguePowerAttackDistanceMult'
p1026
I15803592
sS'fCombatApproachTargetUpdateTime'
p1027
I15803450
sS'fStatsLineScale'
p1028
I15804652
sS'fAIPowerAttackNPCChance'
p1029
I15803275
sS'fPickLevelBase'
p1030
I15804435
sS'fSprintEncumbranceMult'
p1031
I15804630
sS'fStagger1WeapMult'
p1032
I15804632
sS'fAIMaxHeadTrackDistanceFromPC'
p1033
I15803259
sS'fHazardMinimumSpawnInterval'
p1034
I15804152
sS'fGrabMaxWeightRunning'
p1035
I15804121
sS'fCombatCoverObstacleMovedTime'
p1036
I15803542
sS'fCrimeSoundMult'
p1037
I15803985
sS'fCombatMagicWardMagickaEquipLimit'
p1038
I15803787
sS'fShockBoltsRadius'
p1039
I15804570
sS'iXPRewardKillNPCHard'
p1040
I15805077
sS'fCombatSpecialAttackChanceMin'
p1041
I15803904
sS'fRumbleStruckTime'
p1042
I15804534
sS'fHorseMountOffsetY'
p1043
I15804159
sS'fMagicCloudAreaMin'
p1044
I15804246
sS'fPersuasionBaseValueMinDispostion'
p1045
I15804416
sS'fCombatFlankingStepDistanceMult'
p1046
I15803660
sS'fVATSChanceHitMult'
p1047
I15804726
sS'fCombatPathingRefLocationUpdateTimeDistanceMax'
p1048
I15803828
sS'iXPLevelHackComputerAverage'
p1049
I15805059
sS'fCombatItemBuffTimer'
p1050
I15803736
sS'fJumpFallSkillMult'
p1051
I15804180
sS'iSoulLevelValueLesser'
p1052
I15805034
sS'fCombatCircleMinDistanceMult'
p1053
I15803521
sS'fCombatAimProjectileBlockedTime'
p1054
I15803436
sS'fAIMoveDistanceToRecalcTravelToActor'
p1055
I15803270
sS'fGunSpreadIronSightsMult'
p1056
I15804137
sS'fCombatFindLateralAttackLocationDistance'
p1057
I15803629
sS'fCombatOffensiveBashChanceMax'
p1058
I15803812
sS'fCombatSurroundDistanceMax'
p1059
I15803921
sS'fCombatPathingRetryWaitTime'
p1060
I15803832
sS'fAlignMaxKarma'
p1061
I15803323
sS'fAISpectatorShutdownDistance'
p1062
I15803284
sS'fSandboxSleepDurationMin'
p1063
I15804554
sS'fAutomaticWeaponBurstFireTime'
p1064
I15803359
sS'fSandboxCylinderTop'
p1065
I15804541
sS'fItemPointsMult'
p1066
I15804175
sS'fPrecipWindMult'
p1067
I15804479
sS'fCombatCastConcentrationOffensiveMagicChanceMax'
p1068
I15803502
sS'iCombatFlankingAngleOffsetGoalCount'
p1069
I15804891
sS'fCrimeDispAttack'
p1070
I15803973
sS'fGunShellRotateSpeed'
p1071
I15804131
sS'fCrimeGoldSteal'
p1072
I15803981
sS'fActorArmorDesirabilitySkillMult'
p1073
I15803307
sS'fPotionT1RetDurMult'
p1074
I15804471
sS'fIntimidateConfidenceMultAverage'
p1075
I15804166
sS'fConstructibleSkillUseConst'
p1076
I15803962
sS'fGunSpreadHeadMult'
p1077
I15804135
sS'fCombatInventoryMinEquipTimeTorch'
p1078
I15803721
sS'fVATSHitChanceMult'
p1079
I15804738
sS'fGunSpreadIronSightsBase'
p1080
I15804136
sS'fMoveWeightMin'
p1081
I15804352
sS'fMagicGrabActorRange'
p1082
I15804280
sS'fConfidenceFoolhardy'
p1083
I15803961
sS'fAIWaitingforScriptCallback'
p1084
I15803294
sS'fFavorCostLoadDoor'
p1085
I15804087
sS'fArrowBounceRotateSpeed'
p1086
I15803332
sS'fVATSImageSpaceTransitionTime'
p1087
I15804739
sS'fRegionGenTexPlacedMatch'
p1088
I15804506
sS'fCombatRangedAttackHoldTimeMax'
p1089
I15803851
sS'iMoodFaceValue'
p1090
I15804970
sS'fAIWalkAwayTimerForConversation'
p1091
I15803295
sS'fDamagePCSkillMin'
p1092
I15803990
sS'fJumpDoubleMult'
p1093
I15804177
sS'fCombatFindAttackLocationKeyHeight'
p1094
I15803627
sS'fSpecialLootMaxPCLevelBase'
p1095
I15804609
sS'fDiffMultXPN'
p1096
I15804041
sS'fCombatBlockChanceMax'
p1097
I15803486
sS'iXPRewardDiscoverSecretArea'
p1098
I15805074
sS'fDiffMultXPE'
p1099
I15804040
sS'fPickupWeaponRangedDistanceMax'
p1100
I15804454
sS'fCombatCoverMinimumRange'
p1101
I15803541
sS'fMagicDiseaseTransferMult'
p1102
I15804259
sS'fMagicResistActorSkillBase'
p1103
I15804288
sS'iAttackOnSightViolent'
p1104
I15804858
sS'iClassPilgrim'
p1105
I15804878
sS'fCombatThreatUpdateTimeMax'
p1106
I15803948
sS'fCombatDialogueAvoidThreatMaxElapsedTime'
p1107
I15803579
sS'fCombatFlankingAngleOffsetMax'
p1108
I15803635
sS'fCombatSearchDoorSearchRadius'
p1109
I15803874
sS'fCombatMusicPlayerCombatStrengthCap'
p1110
I15803808
sS'iSoundLevelNormal'
p1111
I15805037
sS'fVATSTargetFOVMinDist'
p1112
I15804757
sS'iCrimeFavorBaseValue'
p1113
I15804906
sS'fStatsRotationRampTime'
p1114
I15804653
sS'fTrackMinZ'
p1115
I15804710
sS'fAIDodgeDecisionBase'
p1116
I15803224
sS'fPainDelay'
p1117
I15804367
sS'fStagger2WeapMult'
p1118
I15804634
sS'sNoChargeItems_'
p1119
I15805100
sS'fCombatSearchLocationCheckTime'
p1120
I15803882
sS'fPersuasionAccuracyMaxDisposition'
p1121
I15804410
sS'fObjectMotionBlur'
p1122
I15804364
sS'fAIMeleeHandMult'
p1123
I15803264
sS'fCombatBoundWeaponDPSBonus'
p1124
I15803497
sS'fCombatMagicWardAttackRangeDistance'
p1125
I15803783
sS'fAIDialogueDistance'
p1126
I15803221
sS'fCombatPathingRefLocationUpdateDistance'
p1127
I15803827
sS'fEssentialDownCombatHealthRegenMult'
p1128
I15804063
sS'fSmithingConditionFactor'
p1129
I15804593
sS'fDetectionLOSDistanceAngle'
p1130
I15804027
sS'fWardAngleForExplosions'
p1131
I15804766
sS'fArrowBowSlowMult'
p1132
I15803335
sS'fKnockbackAgilMult'
p1133
I15804191
sS'iTrainingJourneymanCost'
p1134
I15805043
sS'fCombatCoverSearchFailedDelay'
p1135
I15803550
sS'fIntimidateConfidenceMultBrave'
p1136
I15804167
sS'fCombatHideFailedTargetDistance'
p1137
I15803697
sS'fCombatMagicStaggerDistance'
p1138
I15803778
sS'fShockBoltGrowWidth'
p1139
I15804567
sS'fCombatTeammateFollowRadiusMin'
p1140
I15803936
sS'fMagicTelekinesisSpringDamping'
p1141
I15804309
sS'fAISpectatorThreatDistMine'
p1142
I15803287
sS'fDrinkRepeatRate'
p1143
I15804051
sS'fCombatMusicPlayerNearStrengthMult'
p1144
I15803809
sS'iCombatCastDrainMinimumValue'
p1145
I15804888
sS'iNumberActorsInCombatPlayer'
p1146
I15804975
sS'fCombatAcquireWeaponSearchRadiusBuffer'
p1147
I15803419
sS'fArrowMinDistanceForTrails'
p1148
I15803342
sS'fCombatCollectAlliesTimer'
p1149
I15803527
sS'fShockBoltSmallWidth'
p1150
I15804568
sS'iLockLevelMaxImpossible'
p1151
I15804960
sS'fUnarmedNPCDPSMult'
p1152
I15804718
sS'iActorTorsoMaxRotation'
p1153
I15804834
sS'fRepairScavengeMult'
p1154
I15804516
sS'fEnchantingSkillCostScale'
p1155
I15804060
sS'fCombatAttackChanceBlockingMultMax'
p1156
I15803461
sS'fVatsShotgunSpreadRatio'
p1157
I15804764
sS'fCombatRangedStandoffTimer'
p1158
I15803858
sS'fPersBoastIntel'
p1159
I15804389
sS'fShockBranchSegmentVariance'
p1160
I15804576
sS'fCombatCircleMinMovementDistance'
p1161
I15803523
sS'fSandboxDurationMultSleeping'
p1162
I15804543
sS'fAIPatrolMinSecondsAtNormalFurniture'
p1163
I15803272
sS'fMagicTrackingLimitComplex'
p1164
I15804315
sS'fFollowStartSprintDistance'
p1165
I15804106
sS'fDisarmedPickupWeaponDistanceMult'
p1166
I15804044
sS'fCombatLineOfSightTimer'
p1167
I15803741
sS'fCombatCircleViewConeAngle'
p1168
I15803524
sS'fVATSCamTransRBDownStart'
p1169
I15804721
sS'fCombatAreaStandardFlyingRadiusMult'
p1170
I15803456
sS'fCombatCastImmediateOffensiveMagicHoldTimeMinDistance'
p1171
I15803511
sS'iSkillUsageSneakFullDetection'
p1172
I15805028
sS'fWeaponConditionJam9'
p1173
I15804785
sS'fZKeyComplexHelperWeightMax'
p1174
I15804810
sS'fCoverFiredProjectileExpireTime'
p1175
I15803966
sS'fSplashSoundOutMult'
p1176
I15804625
sS'fSandboxEnergyMultEatStanding'
p1177
I15804548
sS'fRegionGenTexPlacedNotMatch'
p1178
I15804507
sS'fTimeSpanAfternoonEnd'
p1179
I15804684
sS'fCoveredAdvanceMinAdvanceDistanceMax'
p1180
I15803969
sS'fCombatSearchDoorDistance'
p1181
I15803872
sS'fStaggerDaggerAR'
p1182
I15804639
sS'fAIMaxAngleRangeMovingToStartSceneDialogue'
p1183
I15803257
sS'fIntimidateConfidenceMultCautious'
p1184
I15804168
sS'fDemandBase'
p1185
I15804015
sS'fKnockbackAgilBase'
p1186
I15804190
sS'fEnchantingSkillCostMult'
p1187
I15804059
sS'fWeaponConditionJam5'
p1188
I15804781
sS'fMagicEnchantmentDrainMult'
p1189
I15804268
sS'iActorKeepTurnDegree'
p1190
I15804832
sS'iPersuasionBribeGold'
p1191
I15804987
sS'fMagicTelekinesisDualCastThrowMult'
p1192
I15804302
sS'fTemperingSkillUseItemValConst'
p1193
I15804681
sS'fPersuasionBaseValueShape'
p1194
I15804418
sS'fPersJokeEner'
p1195
I15804404
sS'fJumpFallSkillBase'
p1196
I15804179
sS'fMagicExplosionPowerMax'
p1197
I15804274
sS'fCombatAngleTolerance'
p1198
I15803441
sS'fCombatPathingRefLocationUpdateTimeMin'
p1199
I15803831
sS'fActorAlphaFadeSeconds'
p1200
I15803304
sS'fCombatPathingLocationCenterOffsetMult'
p1201
I15803824
sS'fCombatRadiusMinMult'
p1202
I15803844
sS'fCombatAttackAnticipatedDistanceMin'
p1203
I15803460
sS'fMagicTelekinesisDamageBase'
p1204
I15804299
sS'fCombatDialogueAttackDistanceMult'
p1205
I15803577
sS'iStandardEmotionValue'
p1206
I15805040
sS'fCombatCoverSecondaryThreatLastSeenTime'
p1207
I15803551
sS'fWeaponClutterKnockMaxWeaponMass'
p1208
I15804776
sS'fMaximumWind'
p1209
I15804336
sS'fShockGlowColorG'
p1210
I15804582
sS'fCombatFindBetterWeaponTime'
p1211
I15803628
sS'fShockGlowColorB'
p1212
I15804581
sS'fMagicNightEyeAmbient'
p1213
I15804284
sS'iClassAssassin'
p1214
I15804867
sS'fWortStrMult'
p1215
I15804802
sS'fCombatAreaHoldPositionMinimumRadius'
p1216
I15803451
sS'fRegionGenNoiseFactor'
p1217
I15804503
sS'fCombatMagicSummonRestrictTime'
p1218
I15803780
sS'iPlayerCustomClass'
p1219
I15805001
sS'fMagicDualCastingTimeBase'
p1220
I15804263
sS'fCombatDeadActorHitConeMult'
p1221
I15803560
sS'fPersuasionMinPercentCircle'
p1222
I15804424
sS'iXPBase'
p1223
I15805058
sS'fAIInteriorSpectatorDetection'
p1224
I15803252
sS'fEyePitchMinOffsetEmotionHappy'
p1225
I15804081
sS'fPickLevelMult'
p1226
I15804436
sS'fGunShellLifetime'
p1227
I15804129
sS'fTemperingSkillUseItemValExp'
p1228
I15804682
sS'fPersBullyConf'
p1229
I15804395
sS'fMagicProjectileMaxDistance'
p1230
I15804287
sS'fDistanceExteriorReactCombat'
p1231
I15804046
sS'fCombatPerchAttackChanceMax'
p1232
I15803838
sS'fConeProjectileWaterScaleMult'
p1233
I15803959
sS'fBowHoldTimer'
p1234
I15803375
sS'fCombatRangedAttackChanceLastAttackBonusTime'
p1235
I15803847
sS'fCombatMaximumOptimalRangeMid'
p1236
I15803793
sS'fMagicSprayOptimalDistance'
p1237
I15804293
sS'fCombatMaximumOptimalRangeMin'
p1238
I15803794
sS'fDamageStrengthMult'
p1239
I15803994
sS'fMovementNearTargetAvoidCost'
p1240
I15804353
sS'fFavorCostTakeObject'
p1241
I15804093
sS'fVATSGrenadeRangeMult'
p1242
I15804733
sS'fCrimeGoldSkillPenaltyMult'
p1243
I15803980
sS'fObjectWeightPickupDetectionMult'
p1244
I15804365
sS'iPerkHeavyArmorSinkSum'
p1245
I15804980
sS'fRandomDoorDistance'
p1246
I15804498
sS'fKnockdownAgilMult'
p1247
I15804194
sS'fCombatDetectionLowPriorityDistance'
p1248
I15803570
sS'fShockCastVOffset'
p1249
I15804577
sS'fDistanceInteriorReactCombat'
p1250
I15804048
sS'fTorchLightLevelMorning'
p1251
I15804702
sS'fPerkHeavyArmorJourneymanDamageMult'
p1252
I15804370
sS'fStaggerMassMult'
p1253
I15804641
sS'fTimeSpanSunriseStart'
p1254
I15804695
sS'fCombatMagicDrinkPotionWaitTime'
p1255
I15803763
sS'iArrestOnSightNonViolent'
p1256
I15804854
sS'fCombatBashTargetBlockingMult'
p1257
I15803480
sS'fCombatBuffMaxTimer'
p1258
I15803498
sS'fCombatMaxHoldScore'
p1259
I15803791
sS'fKnockdownAgilBase'
p1260
I15804193
sS'fLockpickBreakSkillMult'
p1261
I15804222
sS'fCombatDialogueFleeMinElapsedTime'
p1262
I15803589
sS'fCombatSearchRadiusMemberDistance'
p1263
I15803888
sS'fCombatPathingStraightPathCheckDistance'
p1264
I15803835
sS'fCombatMagicParalyzeDistance'
p1265
I15803771
sS'fAIUseMagicToleranceDegrees'
p1266
I15803291
sS'iHairColor02'
p1267
I15804932
sS'fWeaponConditionSpread10'
p1268
I15804797
sS'fPersuasionAccuracyMinDispostion'
p1269
I15804412
sS'iPersuasionDemandDisposition'
p1270
I15804990
sS'fMagicBarrierHeight'
p1271
I15804235
sS'fCombatCircleDistanceMax'
p1272
I15803518
sS'fQuestCinematicObjectiveFadeOut'
p1273
I15804495
sS'fFavorCostStealContainerCrime'
p1274
I15804090
sS'fMagicUnitsPerFoot'
p1275
I15804319
sS'fDecapitateBloodTime'
p1276
I15804009
sS'fCombatFallbackDistanceMin'
p1277
I15803616
sS'fDefaultStamina'
p1278
I15804014
sS'fPersAdmireWillp'
p1279
I15804385
sS'fCombatFlankingGoalAngleFarMinDistance'
p1280
I15803645
sS'fCombatMagicCloakDistanceMax'
p1281
I15803751
sS'fLockSkillMult'
p1282
I15804213
sS'fDefaultMagicka'
p1283
I15804011
sS'fPotionT3AleMagMult'
p1284
I15804476
sS'fCombatThreatAvoidCost'
p1285
I15803938
sS'fMineAgeMax'
p1286
I15804341
sS'iXPLevelSpeechChallengeEasy'
p1287
I15805070
sS'fMagicCloudSizeScale'
p1288
I15804250
sS'fMaxSellMult'
p1289
I15804335
sS'fDangerousObjectExplosionDamage'
p1290
I15803997
sS'fAIMagicTimer'
p1291
I15803256
sS'fArrowWeakGravity'
p1292
I15803348
sS'fAIUpdateMovementRestrictionsDistance'
p1293
I15803290
sS'fAIMeleeWeaponMult'
p1294
I15803265
sS'iRelationshipLoverValue'
p1295
I15805015
sS'iCombatUnloadedActorLastSeenTimeLimit6'
p1296
I15804900
sS'fPickupWeaponDistanceMinMaxDPSMult'
p1297
I15804449
sS'fAIPatrolHysteresisWidth'
p1298
I15803271
sS'fCombatStrafeChanceMin'
p1299
I15803916
sS'fDetectEventSneakDistanceVeryLoud'
p1300
I15804020
sS'iCrimeAlarmRecDistance'
p1301
I15804902
sS'fStatsStarCameraOffsetZ'
p1302
I15804659
sS'fStatsStarCameraOffsetX'
p1303
I15804658
sS'fFavorCostNonLoadDoor'
p1304
I15804088
sS'fPersBullyAggr'
p1305
I15804394
sS'fExplosionLOSBufferDistance'
p1306
I15804073
sS'fCombatMusicGroupThreatRatioMax'
p1307
I15803803
sS'fLockpickBreakMaster'
p1308
I15804219
sS'fDefaultAngleTolerance'
p1309
I15804010
sS'iSneakSkillUseDistance'
p1310
I15805030
sS'iVATSCameraHitDist'
p1311
I15805049
sS'fCombatCircleAngleMax'
p1312
I15803513
sS'fWortcraftStrChanceDenom'
p1313
I15804806
sS'fCombatAdvanceInnerRadiusMid'
p1314
I15803426
sS'fCombatFleeTargetGatherRadius'
p1315
I15803673
sS'fCombatAcquireWeaponSearchSuccessDelay'
p1316
I15803420
sS'fPhysicsDamageSpeedMult'
p1317
I15804434
sS'fCombatDetectionLostRemoveTime'
p1318
I15803567
sS'fCombatMeleeTrackTargetDistanceMax'
p1319
I15803797
sS'fStagger2WeapAR'
p1320
I15804633
sS'iArmorWeightShield'
p1321
I15804853
sS'fCrimeDispPickpocket'
p1322
I15803976
sS'fVATSDestructibleMult'
p1323
I15804729
sS'fMagicFogOptimalDistance'
p1324
I15804278
sS'fCombatMagicOffensiveMinCastTime'
p1325
I15803770
sS'fZKeyComplexHelperScale'
p1326
I15804809
sS'iPerkHeavyArmorJumpSum'
p1327
I15804979
sS'fWeaponBashSkillUseMult'
p1328
I15804771
sS'fMagicDispelMagnitudeMult'
p1329
I15804260
sS'fTimeSpanMidnightEnd'
p1330
I15804688
sS'fCombatAimTrackTargetUpdateTime'
p1331
I15803440
sS'fVATSMeleeMaxDistance'
p1332
I15804746
sS'fSubmergedAngularDamping'
p1333
I15804666
sS'fMagicAccumulatingModifierEffectHoldDuration'
p1334
I15804230
sS'fCombatFlyingAttackChanceMin'
p1335
I15803679
sS'fCombatThreatDangerousObjectHealth'
p1336
I15803941
sS'fInvisibilityMinRefraction'
p1337
I15804172
sS'fFollowWalkMinSlowdownMultiplier'
p1338
I15804109
sS'fCombatDodgeAccelerationMult'
p1339
I15803602
sS'fPerkHeavyArmorMasterSpeedMult'
p1340
I15804371
sS'fHeadingMarkerAngleTolerance'
p1341
I15804154
sS'fAICombatNoTargetLOSPriorityMult'
p1342
I15803215
sS'iCrimeGoldAttack'
p1343
I15804907
sS'fCheckDeadBodyTimer'
p1344
I15803392
sS'fImpactShaderMaxMagnitude'
p1345
I15804164
sS'fShieldBashSkillUseMult'
p1346
I15804566
sS'fMagicTrackingMultFog'
p1347
I15804318
sS'fTorchLightLevelInterior'
p1348
I15804701
sS'fCombatCastImmediateOffensiveMagicChanceMax'
p1349
I15803506
sS'iPersuasionAngleMax'
p1350
I15804984
sS'iAVDAutoCalcSkillMax'
p1351
I15804830
sS'fGunReferenceSkill'
p1352
I15804127
sS'fMagicBoltMaximumDistance'
p1353
I15804238
sS'fCombatMinEngageDistance'
p1354
I15803799
sS'fCombatBlockStartDistanceMax'
p1355
I15803489
sS'fCombatAcquireWeaponAvoidTargetRadius'
p1356
I15803401
sS'fStatsRotationSpeedMax'
p1357
I15804654
sS'iXPLevelSpeechChallengeAverage'
p1358
I15805069
sS'fZKeySpringElasticity'
p1359
I15804820
sS'fCombatProjectileMaxRangeMult'
p1360
I15803842
sS'fCombatFleeAllyDistanceMax'
p1361
I15803661
sS'fmodifiedTargetAttackRange'
p1362
I15804821
sS'iArmorDamageHelmChance'
p1363
I15804846
sS'fAIHoldDefaultHeadTrackTimer'
p1364
I15803245
sS'fCombatLandingSearchDistance'
p1365
I15803739
sS'fMagicExplosionAgilityMult'
p1366
I15804269
sS'fCombatDialogueAllyKilledMaxElapsedTime'
p1367
I15803575
sS'iCombatTargetPlayerSoftCap'
p1368
I15804898
sS'fAutoAimMaxDegreesMelee'
p1369
I15803356
sS'fPersAdmireEner'
p1370
I15804380
sS'fDyingTimer'
p1371
I15804052
sS'fGrenadeHighArcSpeedPercentage'
p1372
I15804124
sS'fCombatLowMaxAttackDistance'
p1373
I15803744
sS'iCombatAimMaxIterations'
p1374
I15804887
sS'fPersBullyEner'
p1375
I15804396
sS'fCombatFlankingGoalAngleNear'
p1376
I15803646
sS'sKinectCantInit'
p1377
I15805098
sS'fCombatFindAllyAttackLocationDistanceMax'
p1378
I15803622
sS'fAuroraFadeOutStart'
p1379
I15803355
sS'iNumberActorsGoThroughLoadDoorInCombat'
p1380
I15804974
sS'fAlignVeryGoodMinKarma'
p1381
I15803326
sS'fCombatLocationTargetRadiusMin'
p1382
I15803742
sS'fTrainingBaseCost'
p1383
I15804712
sS'fCombatDetectionFleeingLostRemoveTime'
p1384
I15803563
sS'sGenericCraftKeywordName08'
p1385
I15805092
sS'fSecondsBetweenWindowUpdate'
p1386
I15804559
sS'fEnchantmentGoldMult'
p1387
I15804061
sS'sGenericCraftKeywordName02'
p1388
I15805086
sS'sGenericCraftKeywordName03'
p1389
I15805087
sS'fPersBoastEner'
p1390
I15804388
sS'sGenericCraftKeywordName06'
p1391
I15805090
sS'sGenericCraftKeywordName07'
p1392
I15805091
sS'fVATSGrenadeSuccessMaxDistance'
p1393
I15804736
sS'sGenericCraftKeywordName05'
p1394
I15805089
sS'fShockSubSegmentVariance'
p1395
I15804586
sS'fTimeSpanSunsetEnd'
p1396
I15804696
sS'iArmorDamageCuirassChance'
p1397
I15804843
sS'fCombatOrbitTimeMin'
p1398
I15803817
sS'bAutoAimBasedOnDistance'
p1399
I15803206
sS'fSneakAmbushTargetMod'
p1400
I15804595
sS'fCombatDialogueTauntDistanceMult'
p1401
I15803593
sS'iPlayerHealthHeartbeatFadeMS'
p1402
I15805002
sS'fMagicLightRadiusBase'
p1403
I15804283
sS'fTrackJustAcquiredDuration'
p1404
I15804708
sS'fBloodSplatterCountRandomMargin'
p1405
I15803372
sS'fDetectProjectileDistancePlayer'
p1406
I15804022
sS'fGunShellCameraDistance'
p1407
I15804128
sS'fTimeSpanMidnightStart'
p1408
I15804689
sS'fCombatSpeakTauntChance'
p1409
I15803902
sS'iLevCharLevelDifferenceMax'
p1410
I15804953
sS'fPotionT1RetMagMult'
p1411
I15804472
sS'fAiAcquirePickBase'
p1412
I15803317
sS'fTorchLightLevelNight'
p1413
I15804703
sS'fCombatDialogueBleedOutMinElapsedTime'
p1414
I15803583
sS'fMapMarkerMinPercentSize'
p1415
I15804327
sS'iPerkHandToHandBlockRecoilChance'
p1416
I15804978
sS'fFurnitureScaleAnimDurationNPC'
p1417
I15804114
sS'fMagicDualCastingEffectivenessMult'
p1418
I15804262
sS'iClassSorcerer'
p1419
I15804882
sS'fSandboxEnergyMultSleeping'
p1420
I15804551
sS'fVATSMeleeArmConditionBase'
p1421
I15804743
sS'iPersuasionBribeCrime'
p1422
I15804986
sS'fPersJokeWillp'
p1423
I15804409
sS'fCombatTeammateFollowRadiusBase'
p1424
I15803935
sS'iAllyHitCombatAllowed'
p1425
I15804839
sS'fGunShellRotateRandomize'
p1426
I15804130
sS'fStatsSkillsLookAtZ'
p1427
I15804657
sS'fStatsSkillsLookAtX'
p1428
I15804655
sS'fStatsSkillsLookAtY'
p1429
I15804656
sS'fBloodSplatterCountBase'
p1430
I15803369
sS'fMapMarkerMinFadeAlpha'
p1431
I15804326
sS'fMagicSummonMaxAppearTime'
p1432
I15804294
sS'iSkillUsageSneakMinDetection'
p1433
I15805029
sS'fPerkHeavyArmorNoviceDamageMult'
p1434
I15804372
sS'fLowLevelNPCBaseHealthMult'
p1435
I15804226
sS'fOutOfBreathStaminaRegenDelay'
p1436
I15804366
sS'fMoveCharRunBase'
p1437
I15804349
sS'fCombatCoverSearchDistanceMax'
p1438
I15803548
sS'fCombatFindLateralAttackLocationIntervalMax'
p1439
I15803630
sS'fCombatRangedDistance'
p1440
I15803855
sS'fAIMinLocationHeight'
p1441
I15803267
sS'iWortcraftMaxEffectsJourneyman'
p1442
I15805055
sS'iRemoveExcessDeadComplexCount'
p1443
I15805017
sS'fCombatMagicInvisibilityDistance'
p1444
I15803767
sS'fCombatDiveBombOffsetPercent'
p1445
I15803600
sS'iLowLevelNPCMaxLevel'
p1446
I15804962
sS'fAIMaxLargeCreatureHeadTrackDistance'
p1447
I15803260
sS'fCombatAttackStationaryAttackDistance'
p1448
I15803473
sS'fCombatDodgeMovingReactionTime'
p1449
I15803609
sS'fCombatParalyzeTacticalDuration'
p1450
I15803818
sS'fPickupWeaponMinDPSImprovementPercent'
p1451
I15804453
sS'fCombatCoverMinimumActiveRange'
p1452
I15803540
sS'fMasserAngleShadowEarlyFade'
p1453
I15804331
sS'fCombatAttackAnimationDrivenDelayTime'
p1454
I15803459
sS'fRumbleStruckStrength'
p1455
I15804533
sS'iFallLegDamageChance'
p1456
I15804924
sS'fCombatBlockTimeMax'
p1457
I15803493
sS'fPickUpWeaponDelay'
p1458
I15804447
sS'fCombatInventoryResourceRegenTime'
p1459
I15803729
sS'fCombatCastImmediateOffensiveMagicHoldTimeAbsoluteMin'
p1460
I15803508
sS'fFleeIsSafeTimer'
p1461
I15804100
sS'fRegionGenTreeSinkPower'
p1462
I15804508
sS'fCombatCircleDistantChanceMin'
p1463
I15803520
sS'fCombatFlyingAttackTargetDistanceThreshold'
p1464
I15803680
sS'fWortalchmult'
p1465
I15804803
sS'fWeaponClutterKnockBipedScale'
p1466
I15804775
sS'iXPLevelPickLockVeryEasy'
p1467
I15805067
sS'fCombatRestoreMagickaPercentMin'
p1468
I15803862
sS'iArmorWeightCuirass'
p1469
I15804849
sS'fAIWanderDefaultMinDist'
p1470
I15803296
sS'fActiveEffectConditionUpdateInterval'
p1471
I15803302
sS'fDetectEventDistanceVeryLoudMult'
p1472
I15804019
sS'fUnarmedDamageMult'
p1473
I15804717
sS'fCombatMagicTargetEffectMinCastTime'
p1474
I15803782
sS'iXPRewardSpeechChallengeAverage'
p1475
I15805081
sS'fPlayerTeleportFadeSeconds'
p1476
I15804465
sS'fMagicAbsorbDistanceReachMult'
p1477
I15804229
sS'fCombatBlockAttackChanceMax'
p1478
I15803482
sS'iClassScout'
p1479
I15804881
sS'fClothingJewelryBase'
p1480
I15803397
sS'fActorAlertSoundTimer'
p1481
I15803303
sS'fWeaponConditionJam8'
p1482
I15804784
sS'fArrowMinSpeedForTrails'
p1483
I15803344
sS'fDetectProjectileDistanceNPC'
p1484
I15804021
sS'fRemoteCombatMissedAttack'
p1485
I15804512
sS'fCombatRoundAmount'
p1486
I15803865
sS'fWeaponConditionJam7'
p1487
I15804783
sS'fWeaponConditionJam6'
p1488
I15804782
sS'fCombatBlockAttackReachMult'
p1489
I15803484
sS'fAIFleeSuccessTimeout'
p1490
I15803244
sS'fCombatDialogueBlockDistanceMult'
p1491
I15803585
sS'fSneakDetectionSizeVeryLarge'
p1492
I15804601
sS'fCombatInventoryMinRangeUnequippedBonus'
p1493
I15803724
sS'fCombatSearchCheckDestinationDistanceMax'
p1494
I15803868
sS'fVATSMoveCameraYPercent'
p1495
I15804749
sS'fBigBumpSpeed'
p1496
I15803365
sS'fCombatBetweenAdvanceTimer'
p1497
I15803481
sS'fVATSCamZoomInTime'
p1498
I15804724
sS'fCombatApproachTargetSlowdownDistance'
p1499
I15803445
sS'fZKeyMaxForceWeightLow'
p1500
I15804817
sS'fVATSGrenadeSuccessExplodeTimer'
p1501
I15804735
sS'fPersJokeResp'
p1502
I15804407
sS'fKnockdownDamageMult'
p1503
I15804198
sS'fPerkLightArmorJourneymanDamageMult'
p1504
I15804375
sS'fCombatSearchInvestigateTime'
p1505
I15803880
sS'fGunSpreadRunBase'
p1506
I15804140
sS'fMovementNearTargetAvoidRadius'
p1507
I15804354
sS'fCombatAimDeltaThreshold'
p1508
I15803432
sS'fCombatDialogueAllyKilledMinElapsedTime'
p1509
I15803576
sS'iHoursToClearCorpses'
p1510
I15804948
sS'fNPCAttributeHealthMult'
p1511
I15804358
sS'fPersBoastResp'
p1512
I15804391
sS'fCombatAcquireWeaponMinimumTargetDistance'
p1513
I15803412
sS'fCombatOptimalRangeMinBufferDistance'
p1514
I15803815
sS'fCombatSearchInteriorRadiusMax'
p1515
I15803878
sS'fLargeRefMinSize'
p1516
I15804201
sS'iCombatFlankingDirectionOffsetCount'
p1517
I15804892
sS'iXPLevelPickLockEasy'
p1518
I15805065
sS'fMagicEnchantmentChargeBase'
p1519
I15804265
sS'fVATSGrenadeDistAimZMult'
p1520
I15804731
sS'fMagicPlayerMinimumInvisibility'
p1521
I15804285
sS'fPerceptionMult'
p1522
I15804368
sS'fCombatDiveBombChanceMax'
p1523
I15803598
sS'fCombatMagicCloakMinCastTime'
p1524
I15803753
sS'sGenericCraftKeywordName10'
p1525
I15805094
sS'fAICombatFleeScoreThreshold'
p1526
I15803213
sS'fCombatThreatAnticipateTime'
p1527
I15803937
sS'fCombatDetectionVeryLowPriorityDistance'
p1528
I15803573
sS'fSandBoxInterMarkerMinDist'
p1529
I15804537
sS'fCombatAcquireWeaponAmmoMinimumScoreMult'
p1530
I15803400
sS'fCombatSearchCheckDestinationTime'
p1531
I15803871
sS'fHitCasterSizeLarge'
p1532
I15804156
sS'fCombatMusicStopTime'
p1533
I15803810
sS'fCombatCoverRangeMinActiveMult'
p1534
I15803545
sS'fAISpectatorCommentTimer'
p1535
I15803283
sS'fMagicFogMaximumDistance'
p1536
I15804277
sS'fCombatFleeDistanceExterior'
p1537
I15803666
sS'fCombatAcquireWeaponReachDistance'
p1538
I15803415
sS'fCombatFleeDoorDistanceMax'
p1539
I15803668
sS'iMaxCharacterLevel'
p1540
I15804966
sS'fAIEscortWaitDistanceInterior'
p1541
I15803234
sS'fCombatAttackPlayerAnticipateMult'
p1542
I15803472
sS'fHazardSpacingMult'
p1543
I15804153
sS'fLockTrapGoOffBase'
p1544
I15804214
sS'fTimeSpanNightStart'
p1545
I15804693
sS'fShockGlowColorR'
p1546
I15804583
sS'iSoulLevelValuePetty'
p1547
I15805035
sS'fCombatRangedProjectileFiringArc'
p1548
I15803857
sS'fFloatQuestMarkerFloatHeight'
p1549
I15804101
sS'fVATSMaxChance'
p1550
I15804741
sS'fCombatRangedAimVariance'
p1551
I15803845
sS'iClassSpellsword'
p1552
I15804883
sS'fJumpFallRiderMult'
p1553
I15804178
sS'fCombatMagicParalyzeMinCastTime'
p1554
I15803772
sS'iClassAcrobat'
p1555
I15804864
sS'fCameraShakeTime'
p1556
I15803389
sS'fSortActorDistanceListTimer'
p1557
I15804608
sS'fMoveSwimMult'
p1558
I15804351
sS'iGameplayiSpeakingEmotionDeltaChange'
p1559
I15804928
sS'iPersuasionBribeRefuse'
p1560
I15804988
sS'fNPCGeneticVariation'
p1561
I15804360
sS'fCombatMagicArmorDistanceMax'
p1562
I15803746
sS'fBSUnitsPerFoot'
p1563
I15803361
sS'fTimerForPlayerFurnitureEnter'
p1564
I15804698
sS'iAllowRepairDuringCombat'
p1565
I15804838
sS'fCombatAcquireWeaponMinimumScoreMult'
p1566
I15803411
sS'iRelationshipFriendValue'
p1567
I15805014
sS'fCombatGrenadeBounceTimeMin'
p1568
I15803687
sS'iClassBard'
p1569
I15804869
sS'fCombatRestoreHealthPercentMin'
p1570
I15803860
sS'fCombatHoverAngleMin'
p1571
I15803702
sS'fBribeBase'
p1572
I15803377
sS'iNPCBasePerLevelHealthMult'
p1573
I15804971
sS'fDiffMultXPVE'
p1574
I15804042
sS'fWeaponConditionReloadJam1'
p1575
I15804787
sS'fKillCamLevelFactor'
p1576
I15804186
sS'fTimeSpanAfternoonStart'
p1577
I15804685
sS'fCombatFleeCoverMinDistance'
p1578
I15803664
sS'fCombatAnticipateTime'
p1579
I15803442
sS'fCombatCircleChanceMin'
p1580
I15803517
sS'iWortcraftMaxEffectsExpert'
p1581
I15805054
sS'fMagicResistActorSkillMult'
p1582
I15804289
sS'fMagicCloudSlowdownRate'
p1583
I15804251
sS'fWeaponConditionReloadJam8'
p1584
I15804795
sS'fCombatRangedAttackHoldTimeMinDistance'
p1585
I15803853
sS'fCombatFallbackChanceMin'
p1586
I15803614
sS'fSandboxEnergyMult'
p1587
I15804546
sS'fSandboxEnergyMultWandering'
p1588
I15804552
sS'fMagicDurMagBaseCostMult'
p1589
I15804264
sS'fEyePitchMaxOffsetEmotionSad'
p1590
I15804079
sS'fPickPocketDetected'
p1591
I15804440
sS'fGrenadeAgeMax'
p1592
I15804123
sS'fCrimeDispSteal'
p1593
I15803977
sS'fCombatCoverRangeMaxActiveMult'
p1594
I15803543
sS'fSneakAttackSkillUsageRanged'
p1595
I15804596
sS'fLockLevelMult'
p1596
I15804207
sS'fWeatherFlashDirectional'
p1597
I15804800
sS'fCombatBlockStopDistanceMin'
p1598
I15803492
sS'fBribeMoralityMult'
p1599
I15803378
sS'fCombatPerchAttackTimeMax'
p1600
I15803840
sS'fAIEscortHysteresisWidth'
p1601
I15803231
sS'fDetectionUpdateTimeMaxComplex'
p1602
I15804032
sS'fCombatGiantCreatureReachMult'
p1603
I15803685
sS'fWeaponClutterKnockMult'
p1604
I15804778
sS'fStaggerRunningMult'
p1605
I15804645
sS'fPickupWeaponMeleeDistanceMax'
p1606
I15804450
sS'fVATSDOFSwitchSeconds'
p1607
I15804728
sS'fCombatFleeUseDoorRestrictTime'
p1608
I15803675
sS'fCombatMagicDisarmDistance'
p1609
I15803761
sS'iClassMage'
p1610
I15804875
sS'fMagicResistTargetWillpowerMult'
p1611
I15804291
sS'fTrapHitEventDelayMS'
p1612
I15804713
sS'fSubmergedLinearDampingH'
p1613
I15804668
sS'fCombatSearchLocationInitialCheckTime'
p1614
I15803883
sS'uiMuteMusicPauseTime'
p1615
I15805103
sS'fLargeProjectileSize'
p1616
I15804200
sS'iAICombatRestoreMagickaPercentage'
p1617
I15804824
sS'fCombatAreaStandardCheckViewConeDistanceMax'
p1618
I15803454
sS'fReflectedAbsorbChanceReduction'
p1619
I15804502
sS'fCombatCoverAvoidTargetRadius'
p1620
I15803533
sS'fNPCBaseMagickaMult'
p1621
I15804359
sS'fDialogFocalDepthRange'
p1622
I15804036
sS'fCombatTargetLocationRepositionAngleMult'
p1623
I15803930
sS'fCombatDialogueAvoidThreatDistanceMult'
p1624
I15803578
sS'fCombatDisarmedFindBetterWeaponInitialTime'
p1625
I15803594
sS'fSplashSoundTimer'
p1626
I15804626
sS'fFurnitureScaleAnimDurationPlayer'
p1627
I15804115
sS'fPotionT1CalMagMult'
p1628
I15804469
sS'fMagicVACNoPartTargetedMult'
p1629
I15804320
sS'fStaminaRegenDelayMax'
p1630
I15804648
sS'fCombatCoverAttackMaxWaitTime'
p1631
I15803528
sS'fIronSightsDOFSwitchSeconds'
p1632
I15804173
sS'fDebrisMaxVelocity'
p1633
I15804007
sS'fFollowRunMaxSpeedupMultiplier'
p1634
I15804104
sS'fMagicBarrierDepth'
p1635
I15804234
sS'sInvalidTagString'
p1636
I15805096
sS'fCombatShoutHeadTrackingAngleMovingMult'
p1637
I15803895
sS'fCombatSearchSightRadius'
p1638
I15803889
sS'fWeaponBashPCMax'
p1639
I15804768
sS'fCombatMissileImpaleDepth'
p1640
I15803800
sS'fBuoyancyMultExtremity'
p1641
I15803382
sS'fLockPickQualityMult'
p1642
I15804211
sS'fAmbushOverRideRadiusforPlayerDetection'
p1643
I15803327
sS'fCombatStaffTimer'
p1644
I15803908
sS'fArrowGravityBase'
p1645
I15803337
sS'fCombatDetectionNoticedTimeLimit'
p1646
I15803572
sS'fCombatMusicNearCombatInnerRadius'
p1647
I15803806
sS'fIntimidateConfidenceMultFoolhardy'
p1648
I15804170
sS'fPotionT2CalDurMult'
p1649
I15804474
sS'fCombatInventoryMinRangeScoreMult'
p1650
I15803723
sS'fPhysicsDamage2Mass'
p1651
I15804429
sS'fMasserZOffset'
p1652
I15804333
sS'iRegionGenRandomnessType'
p1653
I15805007
sS'fGunSpreadNPCArmMult'
p1654
I15804139
sS'fCombatAttackAllowedOverrunDistance'
p1655
I15803458
sS'fZKeyMaxForceScaleLow'
p1656
I15804816
sS'fPhysicsDamage3Mass'
p1657
I15804431
sS'fCombatDetectionDialogueMaxElapsedTime'
p1658
I15803561
sS'fCombatAcquireWeaponDisarmedAcquireTime'
p1659
I15803404
sS'fAIMoveDistanceToRecalcTravelPath'
p1660
I15803269
sS'iFloraFullAlpha'
p1661
I15804926
sS'fMagicTelekinesisMoveMax'
p1662
I15804307
sS'iQuestReminderPipboyDisabledTime'
p1663
I15805004
sS'fMagicTelekinesisComplexSpringElasticity'
p1664
I15804298
sS'fMagicTrackingMultBall'
p1665
I15804316
sS'fEssentialNonCombatHealRateBonus'
p1666
I15804066
sS'fAIPursueDistanceLineOfSight'
p1667
I15803277
sS'iBaseDisposition'
p1668
I15804862
sS'fHandDamageSkillMult'
p1669
I15804144
sS'iLockLevelMaxHard'
p1670
I15804959
sS'fCombatLandingZoneDistance'
p1671
I15803740
sS'fAIInteriorHeadTrackMult'
p1672
I15803251
sS'fCombatApproachTargetSprintStopMovingRange'
p1673
I15803448
sS'iGameplayiSpeakingEmotionListenValue'
p1674
I15804929
sS'fArrowGravityMult'
p1675
I15803339
sS'fMountedMaxLookingDown'
p1676
I15804348
sS'fProjectileKnockMultTrap'
p1677
I15804486
sS'fRumbleHitTime'
p1678
I15804528
sS'iPersuasionInner'
p1679
I15804994
sS'fWeatherTransMin'
p1680
I15804801
sS'iSkillPointsTagSkillMult'
p1681
I15805027
sS'fKillCamLevelBias'
p1682
I15804185
sS'fSandboxSleepStartMax'
p1683
I15804555
sS'fCombatDismemberedLimbVelocity'
p1684
I15803596
sS'fCombatPathingAccelerationMult'
p1685
I15803819
sS'iPersuasionDemandRefuse'
p1686
I15804992
sS'fCoverWaitReloadClipPercent'
p1687
I15803968
sS'fAutomaticWeaponBurstCooldownTime'
p1688
I15803358
sS'fCombatPathingDecelerationMult'
p1689
I15803821
sS'fSandboxEnergyMultEatSitting'
p1690
I15804547
sS'fCombatStrafeDistanceMin'
p1691
I15803918
sS'iDetectEventLightLevelExterior'
p1692
I15804918
sS'fVATSCriticalChanceBonus'
p1693
I15804727
sS'fCombatSpeakPowerAttackChance'
p1694
I15803901
sS'fCombatYieldRetryTime'
p1695
I15803953
sS'iClassHealer'
p1696
I15804873
sS'fSandboxBreakfastMax'
p1697
I15804539
sS'fCombatDiveBombSlowDownDistance'
p1698
I15803601
sS'fSneakCombatMod'
p1699
I15804597
sS'fCombatAttackChanceMax'
p1700
I15803466
sS'fCombatFallbackWaitTimeMax'
p1701
I15803619
sS'fPerkHeavyArmorSinkGravityMult'
p1702
I15804373
sS'iXPRewardKillNPCVeryHard'
p1703
I15805079
sS'fAIIdleAnimationDistance'
p1704
I15803247
sS'iArrestOnSightViolent'
p1705
I15804855
sS'fCombatAcquireWeaponTargetDistanceCheck'
p1706
I15803421
sS'fArrowOptimalDistance'
p1707
I15803346
sS'iCrimeGoldMurder'
p1708
I15804910
sS'iRemoveExcessDeadTotalActorCount'
p1709
I15805019
sS'fCombatFiringArcStationaryTurnMult'
p1710
I15803632
sS'fTargetMovedRepathLength'
p1711
I15804677
sS'fCombatInventoryMinEquipTimeBlock'
p1712
I15803716
sS'fMagicSprayMaximumDistance'
p1713
I15804292
sS'fRefTranslationAlmostDonePercent'
p1714
I15804501
sS'fCombatMagicConcentrationScoreDuration'
p1715
I15803757
sS'iWortcraftMaxEffectsNovice'
p1716
I15805057
sS'iTrainingNumAllowedPerLevel'
p1717
I15805046
sS'fVATSCamTransRBRampup'
p1718
I15804723
sS'fDistanceFadeActorAutoLoadDoor'
p1719
I15804047
sS'fWeaponBlockSkillUseMult'
p1720
I15804773
sS'fCombatFlankingDirectionRotateAngleOffset'
p1721
I15803639
sS'iXPLevelSpeechChallengeVeryHard'
p1722
I15805073
sS'fCombatLowFleeingTargetHitPercent'
p1723
I15803743
sS'fLockSkillBase'
p1724
I15804212
sS'fSandboxEnergyMultFurniture'
p1725
I15804549
sS'iCrimeValueAttackValue'
p1726
I15804915
sS'fTrackFudgeXY'
p1727
I15804706
sS'fBlockAmountHandToHandMult'
p1728
I15803367
sS'fWeaponBloodAlphaToRGBScale'
p1729
I15804774
sS'fCombatGuardRadiusMult'
p1730
I15803694
sS'fCombatCloseRangeTrackTargetDistance'
p1731
I15803525
sS'fMinSandboxRescanSeconds'
p1732
I15804340
sS'fScrollCostMult'
p1733
I15804558
sS'fUnderwaterFullDepth'
p1734
I15804719
sS'sRemoveItemFromInventory'
p1735
I15805101
sS'fCombatInventoryMaxRangeScoreMult'
p1736
I15803714
sS'fCombatDialogueFleeDistanceMult'
p1737
I15803587
sS'fCameraShakeFadeTime'
p1738
I15803387
sS'fDamageSkillMax'
p1739
I15803991
sS'fTemperingSkillUseItemValMult'
p1740
I15804683
sS'fCombatCircleMinDistanceRadiusMult'
p1741
I15803522
sS'fPhysicsDamage3Damage'
p1742
I15804430
sS'fRemoveExcessComplexDeadTime'
p1743
I15804513
sS'fCombatRangedMinimumRange'
p1744
I15803856
sS'fAIRevertToScriptTracking'
p1745
I15803281
sS'fDetectEventDistanceNPC'
p1746
I15804017
sS'fCombatVulnerabilityMod'
p1747
I15803952
sS'iXPLevelPickLockAverage'
p1748
I15805064
sS'fCombatInventoryDesiredRangeScoreMultMax'
p1749
I15803707
sS'fMoveSprintMult'
p1750
I15804350
sS'fCombatBashChanceMax'
p1751
I15803478
sS'fSpecialLootMinPCLevelBase'
p1752
I15804612
sS'fSkillUsageSneakHidden'
p1753
I15804589
sS'fCombatBuffStandoffTimer'
p1754
I15803499
sS'fCombatFindAttackLocationKeyAngle'
p1755
I15803626
sS'fMagicCloudFindTargetTime'
p1756
I15804248
sS'fPersuasionMinSelect'
p1757
I15804425
sS'fPlayerDropDistance'
p1758
I15804460
sS'fCombatYieldTime'
p1759
I15803954
sS'fCombatFlankingStalkTimeMin'
p1760
I15803657
sS'fTrackFudgeZ'
p1761
I15804707
sS'fCombatActiveCombatantLastSeenTime'
p1762
I15803425
sS'iXPLevelHackComputerVeryEasy'
p1763
I15805062
sS'fCombatDodgeAnticipateThreatTime'
p1764
I15803604
sS'fBeamWidthDefault'
p1765
I15803364
sS'fQuestCinematicCharacterFadeInDelay'
p1766
I15804490
sS'fCombatAcquireWeaponRangedDistanceMax'
p1767
I15803413
sS'fMagicCostScale'
p1768
I15804254
sS'fMinDistanceUseHorse'
p1769
I15804339
sS'fCombatHoverTimeMax'
p1770
I15803705
sS'fCombatGroundAttackChanceMax'
p1771
I15803688
sS'fShockBranchBoltsRadiusStrength'
p1772
I15804573
sS'fShieldBashPCMin'
p1773
I15804564
sS'fVATSMaxEngageDistance'
p1774
I15804742
sS'fShockSegmentLength'
p1775
I15804584
sS'fVATSGrenadeSkillFactor'
p1776
I15804734
sS'fMaxSandboxRescanSeconds'
p1777
I15804334
sS'fCombatAcquireWeaponRangedDistanceMin'
p1778
I15803414
sS'fCombatCastConcentrationOffensiveMagicWaitTimeMax'
p1779
I15803504
sS'fAIPowerAttackRecoilBonus'
p1780
I15803276
sS'fProjectileKnockMultProp'
p1781
I15804485
sS'iArmorDamageShieldChance'
p1782
I15804847
sS'fPerkLightArmorExpertSpeedMult'
p1783
I15804374
sS'fPersBullyWillp'
p1784
I15804401
sS'fWeaponConditionCriticalChanceMult'
p1785
I15804779
sS'fCombatRestoreMagickaPercentMax'
p1786
I15803861
sS'fZKeySpringDamping'
p1787
I15804819
sS'fCombatCoverMidPointMaxRangeBuffer'
p1788
I15803539
sS'fStatsStarZInitialOffset'
p1789
I15804664
sS'fZKeyMaxContactDistance'
p1790
I15804813
sS'fShockBranchBoltsRadius'
p1791
I15804572
sS'fRepairMin'
p1792
I15804515
sS'iClassArcher'
p1793
I15804866
sS'iLightLevelExteriorMod'
p1794
I15804956
sS'fProjectileKnockMultClutter'
p1795
I15804484
sS'fSneakEquippedWeightBase'
p1796
I15804603
sS'fCombatAcquireWeaponMeleeScoreMult'
p1797
I15803410
sS'fCombatAttackMovingAttackReachMult'
p1798
I15803470
sS'fSplashSoundVelocityMult'
p1799
I15804627
sS'iMaxSummonedCreatures'
p1800
I15804967
sS'fCombatSearchWanderDistance'
p1801
I15803892
sS'fCombatInTheWayTimer'
p1802
I15803706
sS'iKarmaMax'
p1803
I15804950
sS'fStaggerAttackBase'
p1804
I15804635
sS'fTargetMovedCoveredMoveRepathLength'
p1805
I15804676
sS'fCombatCastConcentrationOffensiveMagicCastTimeMax'
p1806
I15803500
sS'fCombatThreatBufferRadius'
p1807
I15803939
sS'iPerkMarksmanParalyzeChance'
p1808
I15804983
sS'fCombatGuardFollowBufferDistance'
p1809
I15803692
sS'fCombatDodgeChanceMax'
p1810
I15803606
sS'fCombatInventoryMinEquipTimeStaff'
p1811
I15803720
sS'fPotionT1AleMagMult'
p1812
I15804467
sS'fCombatApproachTargetSlowdownDecelerationMult'
p1813
I15803444
sS'fMagicTrackingLimit'
p1814
I15804314
sS'fAiAcquireStealBase'
p1815
I15803319
sS'iClassAgent'
p1816
I15804865
sS'fLockpickBreakAdept'
p1817
I15804216
sS'iCombatStealthPointSneakDetectionThreshold'
p1818
I15804896
sS'fRoomLightingTransitionDuration'
p1819
I15804522
sS'fMagicGrabActorDrawSpeed'
p1820
I15804279
sS'fPersJokeStre'
p1821
I15804408
sS'fCombatSearchLocationRadius'
p1822
I15803885
sS'fCombatMagicParalyzeRestrictTime'
p1823
I15803773
sS'fSandBoxSearchRadius'
p1824
I15804538
sS'fAICombatNoAreaEffectAllyDistance'
p1825
I15803214
sS'fCombatMagicReanimateDistance'
p1826
I15803775
sS'fCombatAcquireWeaponSearchFailedDelay'
p1827
I15803418
sS'fLeveledLockMult'
p1828
I15804202
sS'fAIEscortStartStopDelayTime'
p1829
I15803232
sS'fCrimeDispPersonal'
p1830
I15803975
sS'fPhysicsDamageSpeedMin'
p1831
I15804433
sS'fCrimeSoundBase'
p1832
I15803984
sS'fConstructibleSkillUseMult'
p1833
I15803963
sS'fCombatMaintainRangeDistanceMin'
p1834
I15803790
sS'iSoundLevelLoud'
p1835
I15805036
sS'fVATSLimbSelectCamPanTime'
p1836
I15804740
sS'fCombatThreatExplosiveObjectThreatTime'
p1837
I15803942
sS'fPerkHeavyArmorExpertSpeedMult'
p1838
I15804369
sS'iRelationshipFoeValue'
p1839
I15805013
sS'iPersuasionPower1'
p1840
I15804997
sS'iPersuasionPower2'
p1841
I15804998
sS'iPersuasionPower3'
p1842
I15804999
sS'iArmorWeightGreaves'
p1843
I15804851
sS'fHostileActorExteriorDistance'
p1844
I15804160
sS'fWeaponConditionRateOfFire10'
p1845
I15804786
sS'fCombatCoverWaitTimeMid'
p1846
I15803555
sS'fCombatAdvanceNormalAttackChance'
p1847
I15803429
sS'fCombatCoverWaitTimeMin'
p1848
I15803556
sS'fCombatFlankingDirectionDistanceMult'
p1849
I15803636
sS'fSubmergedLinearDampingV'
p1850
I15804669
sS'fShockBranchSegmentLength'
p1851
I15804575
sS'fCombatHoverChanceMax'
p1852
I15803703
sS'fArrowMaxDistance'
p1853
I15803340
sS'fDialogFocalDepthStrength'
p1854
I15804037
sS'fPersAdmireConf'
p1855
I15804379
sS'fSittingMaxLookingDown'
p1856
I15804588
sS'fCombatAreaStandardAttackedRadius'
p1857
I15803452
sS'fCombatCastConcentrationOffensiveMagicWaitTimeMin'
p1858
I15803505
sS'fPlayerMaxResistance'
p1859
I15804463
sS'iXPRewardKillNPCEasy'
p1860
I15805076
sS'fTriggerAvoidPlayerDistance'
p1861
I15804715
sS'fArrowWobbleDuration'
p1862
I15803351
sS'fLowStaminaTutorialPercentage'
p1863
I15804228
sS'fAIEngergyLevelMult'
p1864
I15803229
sS'fAIRangMagicSpellMult'
p1865
I15803279
sS'iXPRewardSpeechChallengeVeryHard'
p1866
I15805084
sS'iCombatHighPriorityModifier'
p1867
I15804893
sS'fDebrisMinExtent'
p1868
I15804008
sS'fMotionBlur'
p1869
I15804347
sS'fMovementTargetAvoidRadiusMult'
p1870
I15804357
sS'fMovementTargetAvoidRadius'
p1871
I15804356
sS'fKnockdownDamageBase'
p1872
I15804197
sS'iPerkBlockStaggerChance'
p1873
I15804977
sS'iTrainingJourneymanSkill'
p1874
I15805044
sS'fAttributeClassSecondaryBonus'
p1875
I15803354
sS'fDialogZoomInSeconds'
p1876
I15804038
sS'fCombatGroupOffensiveMultMin'
p1877
I15803691
sS'fQuestCinematicCharacterFadeIn'
p1878
I15804489
sS'fCombatShoutLongRecoveryTime'
p1879
I15803897
sS'fTimeSpanSunriseEnd'
p1880
I15804694
sS'fSpellmakingGoldMult'
p1881
I15804620
sS'fConeProjectileForceBase'
p1882
I15803955
sS'fFavorEventTriggerDistance'
p1883
I15804097
sS'fCombatInventoryMinEquipTimeDefault'
p1884
I15803717
sS'fLockpickBreakApprentice'
p1885
I15804217
sS'iRelationshipArchnemesisValue'
p1886
I15805010
sS'fCombatDialogueBleedoutDistanceMult'
p1887
I15803584
sS'fDistancetoPlayerforConversations'
p1888
I15804050
sS'fSpeechCraftMult'
p1889
I15804615
sS'iCrimeDaysInPrisonMod'
p1890
I15804904
sS'fMagicExplosionPowerBase'
p1891
I15804273
sS'iTrainingMasterSkill'
p1892
I15805045
sS'fCombatSurroundDistanceMin'
p1893
I15803922
sS'fCombatCastConcentrationOffensiveMagicChanceMin'
p1894
I15803503
sS'fAIExplosiveWeaponDamageMult'
p1895
I15803235
sS'fHazardDefaultTargetInterval'
p1896
I15804149
sS'fCombatStrengthUpdateTime'
p1897
I15803920
sS'fClothingClassScale'
p1898
I15803396
sS'fSandboxSleepDurationMax'
p1899
I15804553
sS'fConfidenceCowardly'
p1900
I15803960
sS'fMagicCEEnchantMagOffset'
p1901
I15804241
ss.