(dp1
S'GMST'
p2
(dp3
S'iDebrisMaxCount'
p4
I15803218
sS'fAVDSkillMedicineBase'
p5
I30
sS'fCombatSearchExteriorMaxRadius'
p6
I122
sS'sKarmaMajorLostImage'
p7
I549
sS'fSneakActionMult'
p8
I364
sS'iXPLevelKillCreatureEasy'
p9
I491
sS'fBloodSplatterFlareSize'
p10
I88
sS'fAVDHealRateEndurance7Bonus'
p11
I15
sS'fMagicAreaScaleMin'
p12
I310
sS'fAVDCarryWeightsBase'
p13
I11
sS'fVATSMoveCameraLimbMult'
p14
I403
sS'fFurnitureMarker20HeadingDelta'
p15
I250
sS'fMoveWeightMax'
p16
I15803236
sS'fSunZExtreme'
p17
I387
sS'fCombatFleeMaxDoorDistance'
p18
I109
sS'fAVDSkillSpeechBase'
p19
I36
sS'sKarmicTitleNeutral28'
p20
I604
sS'sKarmicTitleNeutral29'
p21
I605
sS'fSplashSoundMedium'
p22
I383
sS'fFurnitureMarker26HeadingDelta'
p23
I262
sS'sKarmicTitleNeutral25'
p24
I601
sS'sKarmicTitleNeutral26'
p25
I602
sS'sKarmicTitleNeutral27'
p26
I603
sS'sKarmicTitleNeutral20'
p27
I596
sS'sKarmicTitleNeutral21'
p28
I597
sS'sKarmicTitleNeutral22'
p29
I598
sS'sKarmicTitleNeutral23'
p30
I599
sS'fDeathForceDamageMax'
p31
I157
sS'sKarmicTitleGood26'
p32
I586
sS'fFurnitureMarker05DeltaY'
p33
I204
sS'fFurnitureMarker05DeltaX'
p34
I203
sS'fFurnitureMarker05DeltaZ'
p35
I205
sS'iXPDeathRewardHealthThreshold'
p36
I489
sS'sKarmicTitleGood20'
p37
I580
sS'fConfidenceAverage'
p38
I138
sS'fSpeechAutoSuccessThreshold'
p39
I375
sS'sKarmicTitleGood23'
p40
I583
sS'fFollowSpaceBetweenFollowers'
p41
I186
sS'fAVDSkillUnarmedBase'
p42
I38
sS'sKarmicTitleGood22'
p43
I582
sS'fAVDSkillMeleeWeaponsBase'
p44
I31
sS'fItemRepairCostMult'
p45
I294
sS'fFurnitureMarker19DeltaX'
p46
I243
sS'fBloodSplatterMinOpacity2'
p47
I93
sS'fSneakBootWeightMult'
p48
I368
sS'iXPRewardHackComputerVeryEasy'
p49
I505
sS'iXPLevelKillCreatureHard'
p50
I492
sS'fBlinkDownTime'
p51
I78
sS'fEssentialDeathTime'
p52
I15803210
sS'fCombatConfidenceModifierMax'
p53
I99
sS'fAISocialTimerForConversationsMax'
p54
I3
sS'fVATSTargetActorZMultNear'
p55
I423
sS'fVATSTargetActorZMultFar'
p56
I421
sS'sPS3DPadY'
p57
I626
sS'fActionPointsStand'
p58
I59
sS'fWeaponConditionJam1'
p59
I435
sS'fWeaponConditionJam3'
p60
I437
sS'fWeaponConditionJam2'
p61
I436
sS'fWeaponConditionJam4'
p62
I438
sS'fGunShellEjectSpeed'
p63
I272
sS'fVATSMoveCameraXPercent'
p64
I404
sS'fAVDActionPointsBase'
p65
I8
sS'sDehydrationNotSick'
p66
I525
sS'iMasserSize'
p67
I470
sS'iHackingFlashOffDuration'
p68
I15803222
sS'fBlockAmountWeaponMult'
p69
I80
sS'fDeathForceDamageMin'
p70
I158
sS'fVATSFortuneOdds'
p71
I399
sS'fSneakLightMult'
p72
I370
sS'sXBDPadUp'
p73
I646
sS'fSandboxDurationMultFurniture'
p74
I360
sS'iLevItemLevelDifferenceMax'
p75
I15803235
sS'fFurnitureMarker01DeltaY'
p76
I188
sS'fFurnitureMarker01DeltaX'
p77
I187
sS'fDamageGunWeapCondMult'
p78
I142
sS'fFurnitureMarker01DeltaZ'
p79
I189
sS'fVATSCamTransRBStart'
p80
I389
sS'fBloodSplatterOpacityChance'
p81
I95
sS'fSpeechChallengeDispositionMultiplier'
p82
I377
sS'fJumpFallHeightExponent'
p83
I295
sS'fGrenadeFriction'
p84
I267
sS'fPlayerDeathReloadTime'
p85
I15803206
sS'fConfidenceBrave'
p86
I139
sS'iProjectileMineShooterCanTrigger'
p87
I478
sS'fVATSDistanceFactor'
p88
I398
sS'fBarterBuyMult'
p89
I75
sS'fFightAggrBase'
p90
I179
sS'iHackingDumpRate'
p91
I15803219
sS'fDispActorCharBase'
p92
I166
sS'iXPRewardHackComputerVeryHard'
p93
I506
sS'sKarmicTitleNeutral11'
p94
I593
sS'fDamageMeleeWeapCondBase'
p95
I143
sS'fCombatPlayerLimbDamageMult'
p96
I121
sS'fFightDistanceMult'
p97
I181
sS'fDamageToWeaponLauncherMult'
p98
I154
sS'fFurnitureMarker18DeltaZ'
p99
I241
sS'fFurnitureMarker18DeltaY'
p100
I240
sS'fFurnitureMarker18DeltaX'
p101
I239
sS'fGameplayImpulseMultBiped'
p102
I263
sS'fAVDCarryWeightMult'
p103
I10
sS'fArmorRatingBase'
p104
I65
sS'fGrenadeRestitution'
p105
I268
sS'sSleepDeprevationDecrease'
p106
I637
sS'fMoveTwoCrippledLegsSpeedMult'
p107
I330
sS'fCombatFleeNormalDistance'
p108
I112
sS'sXBDPadDown'
p109
I643
sS'sHairColor11'
p110
I530
sS'fWeaponConditionRateOfFire9'
p111
I447
sS'fWeaponConditionRateOfFire8'
p112
I446
sS'fWeaponConditionRateOfFire7'
p113
I445
sS'fWeaponConditionRateOfFire6'
p114
I444
sS'fWeaponConditionRateOfFire5'
p115
I443
sS'fWeaponConditionRateOfFire4'
p116
I442
sS'fWeaponConditionRateOfFire3'
p117
I441
sS'fWeaponConditionRateOfFire2'
p118
I440
sS'fWeaponConditionRateOfFire1'
p119
I439
sS'sKarmicTitleGood25'
p120
I585
sS'sKarmicTitleGood24'
p121
I584
sS'sKarmicTitleGood27'
p122
I587
sS'fDeathForceForceMax'
p123
I159
sS'sKarmicTitleGood21'
p124
I581
sS'fFurnitureMarker16HeadingDelta'
p125
I234
sS'fAVDHealRateEndurance8Bonus'
p126
I16
sS'iXPLevelKillNPCVeryEasy'
p127
I498
sS'fAVDHealthEnduranceMult'
p128
I18
sS'sKarmicTitleGood29'
p129
I588
sS'fGunSpreadArmBase'
p130
I273
sS'fCombatMusicStopTime'
p131
I120
sS'fActionPointsVATSMeleeMult'
p132
I63
sS'sKarmicTitleNeutral15'
p133
I595
sS'fDamageToWeaponEnergyMult'
p134
I152
sS'fSplashSoundHeavy'
p135
I382
sS'sKarmicTitleNeutral13'
p136
I594
sS'fBloodSplatterDuration'
p137
I84
sS'sKarmaMinorLostImage'
p138
I553
sS'iMaxCharacterLevel'
p139
I471
sS'fVATSH2HWarpDistanceMult'
p140
I401
sS'fRemoveExcessDeadTime'
p141
I15803233
sS'fKnockdownCurrentHealthThreshold'
p142
I303
sS'sCriticalStrikeIcon'
p143
I521
sS'fMagicLightForwardOffset'
p144
I311
sS'fCombatSpeakHitChance'
p145
I130
sS'fMoveHeavyArmorPenalty'
p146
I324
sS'sKarmicTitleNeutral24'
p147
I600
sS'fActionPointsAttackGrenade'
p148
I43
sS'fVATSStrangerDistance'
p149
I419
sS'fFurnitureMarker15DeltaX'
p150
I227
sS'fFurnitureMarker15DeltaY'
p151
I228
sS'fAutoAimMaxDegreesMiss'
p152
I15803208
sS'fMagicLightSideOffset'
p153
I313
sS'fSneakSoundLosMult'
p154
I374
sS'sXBDPadRight'
p155
I645
sS'sRightArmDamagedIcon'
p156
I635
sS'iRemoveExcessDeadComplexTotalActorCount'
p157
I15803231
sS'sDehydrationIncrease'
p158
I524
sS'fDamageSkillBase'
p159
I149
sS'fSneakMaxDistance'
p160
I371
sS'fFurnitureMarker17HeadingDelta'
p161
I238
sS'fVATSPlaybackDelay'
p162
I406
sS'fMagicSurvivalSkillMult'
p163
I315
sS'fAddictionUsageMonitorThreshold'
p164
I64
sS'iXPLevelKillNPCEasy'
p165
I496
sS'fSneakBootWeightBase'
p166
I367
sS'fSneakExteriorDistanceMult'
p167
I369
sS'fCombatSearchInteriorMediumRadius'
p168
I126
sS'fBloodSplatterFlareMult'
p169
I86
sS'sSleepDeprevationNotSick'
p170
I639
sS'fVATSDOFRange'
p171
I395
sS'fAVDUnarmedDamageBase'
p172
I40
sS'fFurnitureMarker26DeltaY'
p173
I260
sS'fAVDSkillLockpickBase'
p174
I29
sS'fCommentOnPlayerActionsTimer'
p175
I136
sS'sKarmaMinorGained'
p176
I550
sS'fFurnitureMarker26DeltaZ'
p177
I261
sS'fBloodSplatterMinOpacity'
p178
I92
sS'fMagicAreaScaleMax'
p179
I309
sS'sOverEncumbered'
p180
I619
sS'fExplodeLimbRemovalDelay'
p181
I169
sS'fFurnitureMarker11DeltaX'
p182
I211
sS'fFurnitureMarker11DeltaY'
p183
I212
sS'fDiffMultXPVH'
p184
I165
sS'fAISocialchanceForConversation'
p185
I5
sS'fChase3rdPersonZUnitsPerSecond'
p186
I97
sS'sXBDPadLeft'
p187
I644
sS'iXPRewardDiscoverMapMarker'
p188
I500
sS'fCombatSpeakHitThreshold'
p189
I131
sS'sKarmicTitleEvil30'
p190
I572
sS'fVATSRangeSpreadMax'
p191
I412
sS'fFleeDistanceExterior'
p192
I183
sS'fGunSpreadCondBase'
p193
I275
sS'fFurnitureMarker15DeltaZ'
p194
I229
sS'fRadiationDecayRate'
p195
I357
sS'iXPRewardSpeechChallengeVeryEasy'
p196
I518
sS'fFatigueBlockBase'
p197
I177
sS'fWeaponConditionSpread6'
p198
I453
sS'iSpeechChallengeDifficultyVeryHard'
p199
I485
sS'fAVDHealthEnduranceOffset'
p200
I19
sS'iMessCrippledLimbExplodeBonus'
p201
I472
sS'fDispTargetCharMult'
p202
I168
sS'fMoveOneCrippledLegSpeedMult'
p203
I327
sS'fExplodeLimbRemovalDelayVATS'
p204
I170
sS'fFurnitureMarker03DeltaZ'
p205
I197
sS'fFurnitureMarker03DeltaY'
p206
I196
sS'fFurnitureMarker03DeltaX'
p207
I195
sS'iXPRewardKillOpponentAverage'
p208
I507
sS'fGunSpreadRunMult'
p209
I279
sS'fKnockbackForceMax'
p210
I302
sS'fCombatUnarmedCritDamageMult'
p211
I135
sS'fDiffMultXPH'
p212
I163
sS'fDiffMultXPE'
p213
I162
sS'fVATSScreenPercentFactor'
p214
I414
sS'fDispActorCharMult'
p215
I167
sS'sPlayerLeavingBorderRegion'
p216
I627
sS'fAVDSkillSurvivalBase'
p217
I37
sS'sTerminalServerText10'
p218
I641
sS'fMoveSneakMult'
p219
I329
sS'iXPRewardPickLock'
p220
I512
sS'fCombatMusicGroupThreatRatioMax'
p221
I116
sS'fMagicMedicineSkillMult'
p222
I314
sS'fAVDSkillSneakBase'
p223
I35
sS'iComputersDisplayRateNotes'
p224
I15803225
sS'iAICombatRestoreHealthPercentage'
p225
I459
sS'fCombatMusicNearCombatOuterRadius'
p226
I118
sS'iXPRewardPickLockVeryHard'
p227
I517
sS'fAISocialTimerForConversationsMin'
p228
I4
sS'fExplosionImageSpaceSwapPower'
p229
I173
sS'sNoPickPocketAgain'
p230
I614
sS'fActionPointsAttackPistol'
p231
I48
sS'fExplosionForceMultAngular'
p232
I171
sS'fCombatSearchExteriorMinRadius'
p233
I124
sS'sNoTalkUnConscious'
p234
I617
sS'fGunSpreadSkillBase'
p235
I280
sS'fAVDSkillSmallGunsBase'
p236
I34
sS'fAutoAimMaxDistance'
p237
I70
sS'fAutoAimScreenPercentage'
p238
I73
sS'fFurnitureMarker13DeltaX'
p239
I219
sS'fFurnitureMarker13DeltaY'
p240
I220
sS'fFurnitureMarker13DeltaZ'
p241
I221
sS'fExplosionForceMultLinear'
p242
I172
sS'fFollowRunMinSlowdownMultiplier'
p243
I185
sS'fFurnitureMarker14HeadingDelta'
p244
I226
sS'iXPLevelKillCreatureVeryEasy'
p245
I493
sS'fFurnitureMarker03HeadingDelta'
p246
I198
sS'sLeftArmDamagedIcon'
p247
I607
sS'fGunSpreadSkillMult'
p248
I281
sS'fAutoAimMissRatioHigh'
p249
I71
sS'fSunXExtreme'
p250
I385
sS'fVATSRadialStrength'
p251
I411
sS'fArrowBowTimerMult'
p252
I68
sS'fActionPointsAttackMine'
p253
I46
sS'fCombatMusicPlayerTargetedThreatRatio'
p254
I119
sS'fCombatSneakAttackBonusMult'
p255
I128
sS'iCombatDismemberPartChance'
p256
I461
sS'fOverShoulderPosZ'
p257
I340
sS'fOverShoulderPosX'
p258
I339
sS'iVATSStrangerMaxHP'
p259
I487
sS'fDefaultNoticeTextDisplayTime'
p260
I161
sS'fAVDUnarmedDamageMult'
p261
I41
sS'fFurnitureMarker15HeadingDelta'
p262
I230
sS'fCombatDialogueAttackMinElapsedTime'
p263
I106
sS'fActionPointsSwitchWeapon'
p264
I61
sS'fCombatFleeMaxCoverDistance'
p265
I108
sS'iCombatTargetLostRemoveSearchCount'
p266
I463
sS'fActionPointsFOVMult'
p267
I53
sS'fCombatSpeakAttackChance'
p268
I129
sS'fWeapStrengthReqPenalty'
p269
I434
sS'iSpeechChallengeDifficultyAverage'
p270
I481
sS'iXPRewardKillOpponentEasy'
p271
I508
sS'sKarmaMajorLost'
p272
I548
sS'fDamagePowerAttackBackBonus'
p273
I144
sS'fCombatThreatRatioUpdateTime'
p274
I134
sS'iXPRewardPickLockHard'
p275
I515
sS'fDamageToArmorPercentage'
p276
I151
sS'fDamageToWeaponValue'
p277
I156
sS'fGuardPackageAttackRadiusMult'
p278
I269
sS'iDeathDropWeaponChance'
p279
I464
sS'fFatigueBlockMult'
p280
I178
sS'fWorldQuestMarkerMinSize'
p281
I457
sS'fMinesDelayMin'
p282
I321
sS'fPlayerDetectActorValue'
p283
I352
sS'sKarmicTitleEvil02'
p284
I555
sS'fVATSPlayerTimeUpdateMult'
p285
I408
sS'sKarmicTitleEvil01'
p286
I554
sS'fVATSTargetFOVMultNear'
p287
I426
sS'sDefaultPlayerName'
p288
I522
sS'sKarmicTitleEvil09'
p289
I557
sS'fBarterSellBase'
p290
I76
sS'fFurnitureMarker05HeadingDelta'
p291
I206
sS'fCombatMusicNearCombatInnerRadius'
p292
I117
sS'fIdleChatterCommentTimerMax'
p293
I286
sS'fFurnitureMarker11HeadingDelta'
p294
I214
sS'fAVDSkillExplosivesBase'
p295
I28
sS'iXPRewardKillOpponentVeryEasy'
p296
I510
sS'fBloodSplatterMinSize'
p297
I94
sS'fAIUseWeaponDistance'
p298
I7
sS'fJumpSwimmingMult'
p299
I298
sS'fExplosionSplashRadius'
p300
I175
sS'fAVDActionPointsMult'
p301
I9
sS'fFurnitureMarker21DeltaY'
p302
I252
sS'fJumpHeightMin'
p303
I15803211
sS'fVATSShotLongBurstTime'
p304
I415
sS'fAVDHealRateEndurance6Bonus'
p305
I14
sS'fPhysicsDamage3Mass'
p306
I345
sS'sPS3DPadDown'
p307
I621
sS'sKarmicTitleGood11'
p308
I576
sS'fActionPointsAttackHandle'
p309
I44
sS'sKarmicTitleGood13'
p310
I577
sS'fVATSCameraCutAwayDistance'
p311
I391
sS'sKarmicTitleGood15'
p312
I579
sS'fMineExteriorRadiusMult'
p313
I320
sS'fActionPointsRunAndGunMult'
p314
I58
sS'fBarterBuyBase'
p315
I74
sS'fPickPocketActorSkillBase'
p316
I347
sS'sKarmicTitleNeutral02'
p317
I591
sS'iXPLevelKillNPCAverage'
p318
I495
sS'sKarmicTitleNeutral01'
p319
I590
sS'sKarmicTitleNeutral09'
p320
I592
sS'fProjectileInventoryGrenadeTimer'
p321
I354
sS'fVATSTargetActorZMultFarDist'
p322
I422
sS'fAVDSkillBigGunsBase'
p323
I26
sS'iHackingMaxWords'
p324
I15803214
sS'fItemConditionValueMult'
p325
I293
sS'iXPRewardPickLockVeryEasy'
p326
I516
sS'fSecundaAngleFadeStart'
p327
I363
sS'iMessTargetedLimbExplodeBonus'
p328
I475
sS'fAVDHealRateEndurance9Bonus'
p329
I17
sS'fHCSleepDeprivationRate'
p330
I283
sS'fPickPocketTargetSkillMult'
p331
I351
sS'fVATSCameraDollyTime'
p332
I393
sS'iDialogueDummySpeakThisIntOrBelow'
p333
I465
sS'fBloodSplatterMaxOpacity2'
p334
I90
sS'fSneakBaseValue'
p335
I366
sS'fFurnitureMarker01HeadingDelta'
p336
I190
sS'iMineDisarmExperience'
p337
I477
sS'fSneakRunningMult'
p338
I372
sS'fVATSPlayerDamageMult'
p339
I407
sS'fLeveledActorMultMedium'
p340
I308
sS'iGuardWarnings'
p341
I467
sS'fAVDSkillBarterBase'
p342
I25
sS'iInventoryAskQuantityAt'
p343
I15803226
sS'fGameplayImpulseMultProp'
p344
I266
sS'fFurnitureMarker17DeltaX'
p345
I235
sS'fFurnitureMarker17DeltaY'
p346
I236
sS'fFurnitureMarker17DeltaZ'
p347
I237
sS'sKarmaMajorGained'
p348
I546
sS'fSwimRadiationDamageMult'
p349
I388
sS'iLevelUpSkillPointsBase'
p350
I468
sS'iXPBumpBase'
p351
I488
sS'sNoTalkFleeing'
p352
I616
sS'fMasserAngleFadeEnd'
p353
I316
sS'iSoundLevelSilent'
p354
I480
sS'sRestartBecauseContentRemoved'
p355
I634
sS'fSpeechChallengeDispositionBase'
p356
I376
sS'iHackingInputRate'
p357
I15803220
sS'fVATSCriticalChanceBonus'
p358
I394
sS'fCombatDialogueAttackMaxElapsedTime'
p359
I105
sS'iSpeechChallengeDifficultyEasy'
p360
I482
sS'fGunSpreadArmMult'
p361
I274
sS'fActionPointsAttackOneHandMelee'
p362
I47
sS'fAutoAimMaxDegrees'
p363
I69
sS'fIronSightsDOFStrengthCap'
p364
I289
sS'sNoWaitHostilActorsNear'
p365
I618
sS'fCombatThreatProximityExplosionAvoidTime'
p366
I133
sS'iComputersDisplayRateMenus'
p367
I15803224
sS'fActionPointsAttackRifle'
p368
I49
sS'fAVDSkillRepairBase'
p369
I32
sS'fVATSStrangerOdds'
p370
I420
sS'sHeadDamagedIcon'
p371
I543
sS'fCombatAbsoluteMaxRangeMult'
p372
I98
sS'fGunShellLifetime'
p373
I15803215
sS'fKillCameraCooldown'
p374
I301
sS'sDownloadsNotAvail'
p375
I526
sS'sLoadingArea'
p376
I609
sS'iRemoveExcessDeadTotalActorCount'
p377
I15803230
sS'fVATSTargetFOVMultFar'
p378
I424
sS'sRepNegativeLoss'
p379
I630
sS'fGunWobbleMultScope'
p380
I282
sS'fFurnitureMarker21DeltaZ'
p381
I253
sS'fFleeDistanceInterior'
p382
I184
sS'fFurnitureMarker21DeltaX'
p383
I251
sS'iLevelUpSkillPointsInterval'
p384
I469
sS'fFurnitureMarker02DeltaZ'
p385
I193
sS'fFurnitureMarker02DeltaX'
p386
I191
sS'iBloodSplatterMaxCount'
p387
I460
sS'fAVDHealthLevelMult'
p388
I20
sS'iMessTorsoExplodeChance'
p389
I476
sS'fSunMinimumGlareScale'
p390
I384
sS'fBloodSplatterMaxSize'
p391
I91
sS'fFurnitureMarker06HeadingDelta'
p392
I210
sS'iXPLevelKillCreatureAverage'
p393
I490
sS'fAVDNPCHealthLevelMult'
p394
I24
sS'fSpeechChallengeFailureBase'
p395
I378
sS'fPlayerPipBoyLightTimer'
p396
I15803212
sS'sPoisonNoWeaponMessage'
p397
I628
sS'fFurnitureMarker11DeltaZ'
p398
I213
sS'sXBDPadX'
p399
I647
sS'sXBDPadY'
p400
I648
sS'iHackingFlashOnDuration'
p401
I15803223
sS'fFurnitureMarker04HeadingDelta'
p402
I202
sS'fFurnitureMarker18HeadingDelta'
p403
I242
sS'fFurnitureMarker14DeltaZ'
p404
I225
sS'fFurnitureMarker14DeltaY'
p405
I224
sS'fFurnitureMarker14DeltaX'
p406
I223
sS'fGunParticleCameraDistance'
p407
I270
sS'fDiffMultXPVE'
p408
I164
sS'sKBSpace'
p409
I545
sS'fJumpFallHeightMin'
p410
I296
sS'fVATSDOFStrengthCap'
p411
I396
sS'sLoadingContentMessage'
p412
I610
sS'fVanityModeWheelMax'
p413
I429
sS'fMoveMediumArmorPenalty'
p414
I326
sS'fCombatFleeWaitTime'
p415
I113
sS'fBloodSplatterMaxOpacity'
p416
I89
sS'fPickPocketMaxChance'
p417
I350
sS'fAVDMeleeDamageStrengthOffset'
p418
I22
sS'fDamageToWeaponMeleeMult'
p419
I155
sS'iXPRewardHackComputerEasy'
p420
I503
sS'iRemoveExcessDeadComplexCount'
p421
I15803232
sS'sKarmaMajorGainedImage'
p422
I547
sS'iSpeechChallengeDifficultyHard'
p423
I483
sS'sNPCModelFemale'
p424
I612
sS'fCombatCurrentWeaponAbsoluteMaxRangeMult'
p425
I101
sS'fPhysicsDamage3Damage'
p426
I344
sS'fRemoveExcessComplexDeadTime'
p427
I15803234
sS'fCombatFollowRadiusMult'
p428
I114
sS'fActionPointsAttackUnarmed'
p429
I51
sS'fGunSpreadCrouchMult'
p430
I277
sS'fVATSGrenadeTargetArea'
p431
I400
sS'fLevelScalingMult'
p432
I304
sS'fOverShoulderOffsetPointZoomingZ'
p433
I338
sS'sBloodParticleDefault'
p434
I519
sS'fGameplayImpulseMultDebrisLarge'
p435
I265
sS'fJumpFallVelocityMin'
p436
I297
sS'sPS3DPadUp'
p437
I624
sS'fFurnitureMarker26DeltaX'
p438
I259
sS'fIronSightsMotionBlur'
p439
I291
sS'fGunShellDirectionRandomize'
p440
I271
sS'fCombatFleeMinCoverDistance'
p441
I111
sS'iSecundaSize'
p442
I479
sS'sTraitMenuTitleText'
p443
I642
sS'fVATSSmartCameraCheckStepDistance'
p444
I417
sS'sRightLegDamagedIcon'
p445
I636
sS'iXPRewardPickLockEasy'
p446
I514
sS'iSpeechChallengeDifficultyVeryEasy'
p447
I484
sS'sRepPositiveLoss'
p448
I632
sS'fDamagePowerAttackForwardBonus'
p449
I146
sS'sHairColor15'
p450
I534
sS'sHairColor14'
p451
I533
sS'sHairColor13'
p452
I532
sS'sHairColor12'
p453
I531
sS'fMoveRunMult'
p454
I328
sS'fMove2HBigPenalty'
p455
I322
sS'fConcussionTimer'
p456
I137
sS'fAVDCritLuckBase'
p457
I12
sS'fCombatSearchExteriorMediumRadius'
p458
I123
sS'fNPCMaxGunWobbleAngle'
p459
I331
sS'sPS3DPadRight'
p460
I623
sS'fAVDMeleeDamageStrengthMult'
p461
I21
sS'fFurnitureMarker19HeadingDelta'
p462
I246
sS'fVATSRangeSpreadUncertainty'
p463
I413
sS'fFightDistanceBase'
p464
I180
sS'fFurnitureMarker20DeltaZ'
p465
I249
sS'iXPLevelKillCreatureVeryHard'
p466
I494
sS'fFurnitureMarker20DeltaX'
p467
I247
sS'fFurnitureMarker20DeltaY'
p468
I248
sS'sKarmicTitleEvil11'
p469
I558
sS'sKarmicTitleEvil13'
p470
I559
sS'sKarmicTitleEvil15'
p471
I561
sS'sKarmicTitleEvil14'
p472
I560
sS'fWeaponConditionSpread9'
p473
I456
sS'fWeaponConditionSpread8'
p474
I455
sS'fWeaponConditionSpread7'
p475
I454
sS'iAINumberActorsComplexScene'
p476
I15803213
sS'fWeaponConditionSpread5'
p477
I452
sS'fWeaponConditionSpread4'
p478
I451
sS'fFurnitureMarker19DeltaZ'
p479
I245
sS'fWeaponConditionSpread2'
p480
I449
sS'fWeaponConditionSpread1'
p481
I448
sS'fFurnitureMarker19DeltaY'
p482
I244
sS'fOverShoulderOffsetPointZ'
p483
I335
sS'fWadeRadiationDamageMult'
p484
I431
sS'fOverShoulderOffsetPointX'
p485
I334
sS'fVATSSpreadMult'
p486
I418
sS'fOverShoulderStartBlendDist'
p487
I342
sS'fAutoAimMissRatioLow'
p488
I72
sS'fNoticeTextTimePerCharacter'
p489
I333
sS'fVATSSmartCameraCheckHeight'
p490
I416
sS'sKarmaMinorGainedImage'
p491
I551
sS'sSleepDeprevationIncrease'
p492
I638
sS'fFurnitureMarker12DeltaZ'
p493
I217
sS'iNumberActorsInCombatPlayer'
p494
I15803227
sS'fLeveledActorMultEasy'
p495
I306
sS'sKarmicTitleGood09'
p496
I575
sS'fOverShoulderRotMult'
p497
I341
sS'iXPRewardKillOpponentHard'
p498
I509
sS'fGunSpreadDriftMult'
p499
I278
sS'fBloodSplatterFlareOffsetScale'
p500
I87
sS'sKarmicTitleGood02'
p501
I574
sS'sKarmicTitleGood01'
p502
I573
sS'fWeapSkillReqPenalty'
p503
I433
sS'fAISocialchanceForConversationInterior'
p504
I6
sS'fFurnitureMarker21HeadingDelta'
p505
I254
sS'sHairColor10'
p506
I529
sS'fGunDecalCameraDistance'
p507
I15803217
sS'fLeveledActorMultBoss'
p508
I305
sS'iMessIntactLimbExplodeBonus'
p509
I474
sS'fNonAttackGunWobbleMult'
p510
I332
sS'fExplosionSourceRefMult'
p511
I174
sS'sKarmicTitleNeutral30'
p512
I606
sS'fLeveledActorMultHard'
p513
I307
sS'fCombatSearchInteriorMinRadius'
p514
I127
sS'sKarmicTitleGood14'
p515
I578
sS'fWorldfPlayerCursorMinSize'
p516
I458
sS'fActionPointsAimAdjustment'
p517
I42
sS'fVATSTargetFOVMultFarDist'
p518
I425
sS'fRadiationAccumulationRate'
p519
I356
sS'fFurnitureMarker06DeltaZ'
p520
I209
sS'fFurnitureMarker06DeltaX'
p521
I207
sS'fFurnitureMarker06DeltaY'
p522
I208
sS'fOverShoulderOffsetPointZoomingX'
p523
I336
sS'fOverShoulderOffsetPointZoomingY'
p524
I337
sS'fDamagePowerAttackBonus'
p525
I145
sS'fBlockSkillBase'
p526
I82
sS'fArrowBowTimerBase'
p527
I67
sS'sPS3DPadLeft'
p528
I622
sS'fIronSightsGunMotionBlur'
p529
I290
sS'fFurnitureMarker12DeltaY'
p530
I216
sS'fFurnitureMarker12DeltaX'
p531
I215
sS'iXPRewardHackComputerHard'
p532
I504
sS'fSpeechDelay'
p533
I381
sS'iNumberActorsAllowedToFollowPlayer'
p534
I15803228
sS'iRemoveExcessDeadCount'
p535
I15803229
sS'fActionPointsPowerAttackMult'
p536
I55
sS'sPCControlsTextPrefix'
p537
I620
sS'sKBCapital'
p538
I544
sS'fPhysicsDamage2SpeedMin'
p539
I343
sS'fActionPointsAttackLauncher'
p540
I45
sS'fArmorRatingMax'
p541
I66
sS'fCombatItemRestoreTimer'
p542
I115
sS'sKarmaMinorLost'
p543
I552
sS'fVATSCameraDollyMin'
p544
I392
sS'fPhysicsDamage3SpeedMin'
p545
I346
sS'fVATSTargetRotateMult'
p546
I427
sS'fDeathForceForceMin'
p547
I160
sS'fCombatFleeMaxAllyDistance'
p548
I107
sS'fPickPocketActorSkillMult'
p549
I348
sS'fConfidenceCautious'
p550
I140
sS'fVanityModeAutoDelay'
p551
I428
sS'fIdleChatterCommentTimer'
p552
I285
sS'fAVDSkillScienceBase'
p553
I33
sS'fMinDamMultiplier'
p554
I319
sS'fFurnitureMarker04DeltaX'
p555
I199
sS'fFurnitureMarker04DeltaY'
p556
I200
sS'fFurnitureMarker04DeltaZ'
p557
I201
sS'fCombatConfidenceModifierMin'
p558
I100
sS'fAISocialRadiusToTriggerConversationInterior'
p559
I2
sS'iXPRewardKillOpponentVeryHard'
p560
I511
sS'fVATSDamageToWeaponMult'
p561
I397
sS'sNoSleepHostileActorsNear'
p562
I615
sS'sLeftLegDamagedIcon'
p563
I608
sS'fHCStarvationRate'
p564
I284
sS'fGunSpreadCondMult'
p565
I276
sS'fProjectileKnockMultBiped'
p566
I355
sS'iXPRewardHackComputer'
p567
I501
sS'fVATSRadialStart'
p568
I410
sS'sCWheelUseStimPack'
p569
I520
sS'fBloodSplatterFadeStart'
p570
I85
sS'iCombatExplodePartChance'
p571
I462
sS'fCombatDetectionDialogueIdleMaxElapsedTime'
p572
I103
sS'fDamagePowerAttackStandBonus'
p573
I148
sS'fSneakSkillMult'
p574
I373
sS'fIronSightsDOFDistance'
p575
I287
sS'fMagicLightHeightOffset'
p576
I312
sS'sPS3DPadX'
p577
I625
sS'sSplashParticles'
p578
I640
sS'fBarterSellMult'
p579
I77
sS'fCombatDamageBonusSneakingMult'
p580
I102
sS'fWarningTimer'
p581
I432
sS'fWeaponConditionSpread3'
p582
I450
sS'fDamageSkillMult'
p583
I150
sS'fVATSCamTransRBStrengthCap'
p584
I390
sS'fMasserAngleFadeStart'
p585
I317
sS'fBookPerkBonus'
p586
I96
sS'fFurnitureMarker23HeadingDelta'
p587
I258
sS'fRepairSkillMax'
p588
I359
sS'fFightFriendDispBase'
p589
I182
sS'fDamageToWeaponGunMult'
p590
I153
sS'iXPRewardPickLockAverage'
p591
I513
sS'fSecundaAngleFadeEnd'
p592
I362
sS'fActionPointsAttackTwoHandMelee'
p593
I50
sS'fActionPointsRestoreRate'
p594
I57
sS'fBlockMax'
p595
I81
sS'fAIDefaultSpeechMult'
p596
I1
sS'sRepNegativeGain'
p597
I629
sS'fRadiationResistanceAvoidLevel'
p598
I358
sS'sKarmicTitleGood30'
p599
I589
sS'fBlockSkillMult'
p600
I83
sS'fSpeechChallengeMultiplier'
p601
I380
sS'fCombatTeammateFollowRadiusMult'
p602
I132
sS'fSunYExtreme'
p603
I386
sS'fCombatDetectionDialogueIdleMinElapsedTime'
p604
I104
sS'iMapMarkerVisibleDistance'
p605
I15803207
sS'fSpeechChallengeFailureMultiplier'
p606
I379
sS'fActionPointsCrouch'
p607
I52
sS'iXPRewardHackComputerAverage'
p608
I502
sS'fCombatFleeMinAllyDistance'
p609
I110
sS'fIronSightsDOFRange'
p610
I288
sS'iHoursToRespawnCell'
p611
I15803209
sS'fActionPointsReload'
p612
I56
sS'iXPLevelKillNPCVeryHard'
p613
I499
sS'fAVDNPCHealthEnduranceMult'
p614
I23
sS'fFurnitureMarker13HeadingDelta'
p615
I222
sS'fMoveLegConditionMult'
p616
I325
sS'iTraitMenuMaxNumTraits'
p617
I486
sS'iXPLevelKillNPCHard'
p618
I497
sS'fAVDTagSkillBonus'
p619
I39
sS'fGameplayImpulseMultClutter'
p620
I264
sS'iMessIntactLimbDismemberChance'
p621
I473
sS'sNoFastTravelScriptBlock'
p622
I613
sS'sRepTitlePosTwoNegThreeDesc'
p623
I633
sS'fGunShellCameraDistance'
p624
I15803216
sS'iHackingOutputRate'
p625
I15803221
sS'fFurnitureMarker12HeadingDelta'
p626
I218
sS'fKarmaModStealing'
p627
I300
sS'fFurnitureMarker02DeltaY'
p628
I192
sS'fDamageGunWeapCondBase'
p629
I141
sS'fPickPocketAmountMult'
p630
I349
sS'fMaxArmorRating'
p631
I318
sS'fVATSParalyzePalmChance'
p632
I405
sS'fFurnitureMarker02HeadingDelta'
p633
I194
sS'fCombatSearchInteriorMaxRadius'
p634
I125
sS'fKarmaModKillingEvilActor'
p635
I299
sS'fFurnitureMarker16DeltaY'
p636
I232
sS'fFurnitureMarker16DeltaX'
p637
I231
sS'fFurnitureMarker16DeltaZ'
p638
I233
sS'iFriendHitCombatAllowed'
p639
I466
sS'fBlinkUpTime'
p640
I79
sS'sKarmicTitleEvil08'
p641
I556
sS'fItemConditionValueBase'
p642
I292
sS'sRepPositiveGain'
p643
I631
sS'fVATSRadialRampup'
p644
I409
sS'fAVDSkillEnergyWeaponsBase'
p645
I27
sS'fSneakAmbushNonTargetMod'
p646
I365
sS'fSandboxDurationMultIdleMarker'
p647
I361
sS'fAVDHealRateEndurance10Bonus'
p648
I13
sS'fActionPointsHeal'
p649
I54
sS'sKarmicTitleEvil21'
p650
I563
sS'fVATSMeleeWarpDistanceMult'
p651
I402
sS'fDamagePowerAttackSideBonus'
p652
I147
sS'fActionPointsToggleWeaponDrawn'
p653
I62
sS'sHairColor9'
p654
I542
sS'sHairColor8'
p655
I541
sS'fFurnitureMarker23DeltaY'
p656
I256
sS'fFurnitureMarker23DeltaX'
p657
I255
sS'fFurnitureMarker23DeltaZ'
p658
I257
sS'sHairColor3'
p659
I536
sS'sHairColor2'
p660
I535
sS'sHairColor1'
p661
I528
sS'sHairColor0'
p662
I527
sS'sHairColor7'
p663
I540
sS'sHairColor6'
p664
I539
sS'sHairColor5'
p665
I538
sS'sHairColor4'
p666
I537
sS'fProjectileInventoryGrenadeFreakoutTime'
p667
I353
sS'fActionPointsSustainedFireMult'
p668
I60
sS'sMorphine'
p669
I611
sS'sDehydrationDecrease'
p670
I523
sS'sKarmicTitleEvil24'
p671
I566
sS'sKarmicTitleEvil25'
p672
I567
sS'sKarmicTitleEvil26'
p673
I568
sS'sKarmicTitleEvil27'
p674
I569
sS'sKarmicTitleEvil20'
p675
I562
sS'fExplosionWaterRadiusRatio'
p676
I176
sS'sKarmicTitleEvil22'
p677
I564
sS'sKarmicTitleEvil23'
p678
I565
sS'fMoveBaseSpeed'
p679
I323
sS'fVanityModeWheelMin'
p680
I430
sS'sKarmicTitleEvil28'
p681
I570
sS'sKarmicTitleEvil29'
p682
I571
ss.