(dp1
S'GMST'
p2
(dp3
S'iXPLevelKillCreatureEasy'
p4
I491
sS'fAVDSkillMedicineBase'
p5
I30
sS'fCombatSearchExteriorMaxRadius'
p6
I122
sS'fAISocialRadiusToTriggerConversationInterior'
p7
I2
sS'fSneakActionMult'
p8
I364
sS'iXPRewardHackComputerHard'
p9
I504
sS'iDebrisMaxCount'
p10
I15803218
sS'fGunShellEjectSpeed'
p11
I272
sS'fAVDHealRateEndurance7Bonus'
p12
I15
sS'fMagicAreaScaleMin'
p13
I310
sS'fAVDCarryWeightsBase'
p14
I11
sS'fVATSMoveCameraLimbMult'
p15
I403
sS'fFurnitureMarker20HeadingDelta'
p16
I250
sS'fMoveWeightMax'
p17
I15803236
sS'fSunZExtreme'
p18
I387
sS'fCombatFleeMaxDoorDistance'
p19
I109
sS'fAVDSkillSpeechBase'
p20
I36
sS'sKarmicTitleNeutral28'
p21
I604
sS'sKarmicTitleNeutral29'
p22
I605
sS'fSplashSoundMedium'
p23
I383
sS'fFurnitureMarker26HeadingDelta'
p24
I262
sS'sKarmicTitleNeutral25'
p25
I601
sS'sKarmicTitleNeutral26'
p26
I602
sS'sKarmicTitleNeutral27'
p27
I603
sS'sKarmicTitleNeutral20'
p28
I596
sS'sKarmicTitleNeutral21'
p29
I597
sS'sKarmicTitleNeutral22'
p30
I598
sS'sKarmicTitleNeutral23'
p31
I599
sS'fGunSpreadSkillBase'
p32
I280
sS'sKarmicTitleGood26'
p33
I586
sS'fFurnitureMarker05DeltaY'
p34
I204
sS'fFurnitureMarker05DeltaX'
p35
I203
sS'fFurnitureMarker05DeltaZ'
p36
I205
sS'iXPDeathRewardHealthThreshold'
p37
I489
sS'sKarmicTitleGood20'
p38
I580
sS'fConfidenceAverage'
p39
I138
sS'iSpeechChallengeDifficultyVeryHard'
p40
I485
sS'sKarmicTitleGood23'
p41
I583
sS'fFollowSpaceBetweenFollowers'
p42
I186
sS'fAVDSkillUnarmedBase'
p43
I38
sS'sKarmicTitleGood22'
p44
I582
sS'fAVDSkillMeleeWeaponsBase'
p45
I31
sS'fItemRepairCostMult'
p46
I294
sS'fBloodSplatterMinOpacity2'
p47
I93
sS'fSneakBootWeightMult'
p48
I368
sS'iXPRewardHackComputerVeryEasy'
p49
I505
sS'iXPLevelKillCreatureHard'
p50
I492
sS'fBlinkDownTime'
p51
I78
sS'fEssentialDeathTime'
p52
I15803210
sS'fCombatConfidenceModifierMax'
p53
I99
sS'fAISocialTimerForConversationsMax'
p54
I3
sS'fVATSTargetActorZMultFar'
p55
I421
sS'sPS3DPadY'
p56
I626
sS'fActionPointsStand'
p57
I59
sS'fWeaponConditionJam1'
p58
I435
sS'fWeaponConditionJam3'
p59
I437
sS'fWeaponConditionJam2'
p60
I436
sS'fWeaponConditionJam4'
p61
I438
sS'fBloodSplatterFlareSize'
p62
I88
sS'fVATSMoveCameraXPercent'
p63
I404
sS'fAVDActionPointsBase'
p64
I8
sS'fGameplayImpulseMultProp'
p65
I266
sS'fFurnitureMarker15HeadingDelta'
p66
I230
sS'iMasserSize'
p67
I470
sS'iHackingFlashOffDuration'
p68
I15803222
sS'fBlockAmountWeaponMult'
p69
I80
sS'fDeathForceDamageMin'
p70
I158
sS'fVATSFortuneOdds'
p71
I399
sS'fSneakLightMult'
p72
I370
sS'fFurnitureMarker17DeltaX'
p73
I235
sS'fSandboxDurationMultFurniture'
p74
I360
sS'fFurnitureMarker01DeltaY'
p75
I188
sS'fFurnitureMarker01DeltaX'
p76
I187
sS'fDamageGunWeapCondMult'
p77
I142
sS'fFurnitureMarker01DeltaZ'
p78
I189
sS'fVATSCamTransRBStart'
p79
I389
sS'fBloodSplatterOpacityChance'
p80
I95
sS'fSpeechChallengeDispositionMultiplier'
p81
I377
sS'fJumpFallHeightExponent'
p82
I295
sS'fGrenadeFriction'
p83
I267
sS'fPlayerDeathReloadTime'
p84
I15803206
sS'fConfidenceBrave'
p85
I139
sS'iProjectileMineShooterCanTrigger'
p86
I478
sS'fVATSDistanceFactor'
p87
I398
sS'fBarterBuyMult'
p88
I75
sS'iHackingDumpRate'
p89
I15803219
sS'fDispActorCharBase'
p90
I166
sS'fDamageGunWeapCondBase'
p91
I141
sS'iXPRewardHackComputerVeryHard'
p92
I506
sS'sKarmicTitleNeutral11'
p93
I593
sS'fDamageMeleeWeapCondBase'
p94
I143
sS'fCombatPlayerLimbDamageMult'
p95
I121
sS'fFightDistanceMult'
p96
I181
sS'fActorStrengthEncumbranceMult'
p97
I15803237
sS'fDamageToWeaponLauncherMult'
p98
I154
sS'fFurnitureMarker18DeltaZ'
p99
I241
sS'fFurnitureMarker18DeltaY'
p100
I240
sS'fFurnitureMarker18DeltaX'
p101
I239
sS'fGameplayImpulseMultBiped'
p102
I263
sS'fAVDCarryWeightMult'
p103
I10
sS'fArmorRatingBase'
p104
I65
sS'fGrenadeRestitution'
p105
I268
sS'sSleepDeprevationDecrease'
p106
I637
sS'fMoveTwoCrippledLegsSpeedMult'
p107
I330
sS'fCombatFleeNormalDistance'
p108
I112
sS'sXBDPadDown'
p109
I643
sS'fVATSStrangerOdds'
p110
I420
sS'fMoveRunMult'
p111
I328
sS'fWeaponConditionRateOfFire9'
p112
I447
sS'fWeaponConditionRateOfFire8'
p113
I446
sS'fWeaponConditionRateOfFire7'
p114
I445
sS'fWeaponConditionRateOfFire6'
p115
I444
sS'fWeaponConditionRateOfFire5'
p116
I443
sS'fWeaponConditionRateOfFire4'
p117
I442
sS'fWeaponConditionRateOfFire3'
p118
I441
sS'fWeaponConditionRateOfFire2'
p119
I440
sS'fWeaponConditionRateOfFire1'
p120
I439
sS'sKarmicTitleGood25'
p121
I585
sS'sKarmicTitleGood24'
p122
I584
sS'sKarmicTitleGood27'
p123
I587
sS'fDeathForceForceMax'
p124
I159
sS'sKarmicTitleGood21'
p125
I581
sS'fFurnitureMarker16HeadingDelta'
p126
I234
sS'fAVDHealRateEndurance8Bonus'
p127
I16
sS'iXPLevelKillNPCVeryEasy'
p128
I498
sS'sHairColor6'
p129
I539
sS'fAVDHealthEnduranceMult'
p130
I18
sS'sKarmicTitleGood29'
p131
I588
sS'fGunSpreadArmBase'
p132
I273
sS'fCombatMusicStopTime'
p133
I120
sS'fActionPointsVATSMeleeMult'
p134
I63
sS'sKarmicTitleNeutral15'
p135
I595
sS'fDamageToWeaponEnergyMult'
p136
I152
sS'fSplashSoundHeavy'
p137
I382
sS'sKarmicTitleNeutral13'
p138
I594
sS'fCombatFleeMinCoverDistance'
p139
I111
sS'fBloodSplatterDuration'
p140
I84
sS'sKarmaMinorLostImage'
p141
I553
sS'iMaxCharacterLevel'
p142
I471
sS'fVATSH2HWarpDistanceMult'
p143
I401
sS'fRemoveExcessDeadTime'
p144
I15803233
sS'fKnockdownCurrentHealthThreshold'
p145
I303
sS'fPhysicsDamage3SpeedMin'
p146
I346
sS'fMagicLightForwardOffset'
p147
I311
sS'fCombatSpeakHitChance'
p148
I130
sS'fMoveHeavyArmorPenalty'
p149
I324
sS'sKarmicTitleNeutral24'
p150
I600
sS'fActionPointsAttackGrenade'
p151
I43
sS'fFurnitureMarker15DeltaZ'
p152
I229
sS'fAVDHealthEnduranceOffset'
p153
I19
sS'fFurnitureMarker15DeltaY'
p154
I228
sS'fAutoAimMaxDegreesMiss'
p155
I15803208
sS'fSneakSoundLosMult'
p156
I374
sS'sXBDPadRight'
p157
I645
sS'iRemoveExcessDeadComplexTotalActorCount'
p158
I15803231
sS'sDehydrationIncrease'
p159
I524
sS'fDamageSkillBase'
p160
I149
sS'fSneakMaxDistance'
p161
I371
sS'fFurnitureMarker17HeadingDelta'
p162
I238
sS'sKarmicTitleEvil26'
p163
I568
sS'fKarmaModKillingEvilActor'
p164
I299
sS'fVATSPlaybackDelay'
p165
I406
sS'fMagicSurvivalSkillMult'
p166
I315
sS'fAVDCritLuckBase'
p167
I12
sS'fAddictionUsageMonitorThreshold'
p168
I64
sS'fMasserAngleFadeStart'
p169
I317
sS'fSneakBootWeightBase'
p170
I367
sS'fSneakExteriorDistanceMult'
p171
I369
sS'fCombatSearchInteriorMediumRadius'
p172
I126
sS'fBloodSplatterFlareMult'
p173
I86
sS'sSleepDeprevationNotSick'
p174
I639
sS'fFurnitureMarker23HeadingDelta'
p175
I258
sS'fFurnitureMarker26DeltaX'
p176
I259
sS'fAVDSkillLockpickBase'
p177
I29
sS'fCommentOnPlayerActionsTimer'
p178
I136
sS'fFurnitureMarker21DeltaX'
p179
I251
sS'fFurnitureMarker26DeltaZ'
p180
I261
sS'fBloodSplatterMinOpacity'
p181
I92
sS'fMagicAreaScaleMax'
p182
I309
sS'sOverEncumbered'
p183
I619
sS'fExplodeLimbRemovalDelay'
p184
I169
sS'fFurnitureMarker11DeltaX'
p185
I211
sS'fFurnitureMarker11DeltaY'
p186
I212
sS'fDiffMultXPVH'
p187
I165
sS'fAISocialchanceForConversation'
p188
I5
sS'fChase3rdPersonZUnitsPerSecond'
p189
I97
sS'sXBDPadLeft'
p190
I644
sS'fRepairSkillMax'
p191
I359
sS'fCombatSpeakHitThreshold'
p192
I131
sS'sKarmicTitleEvil30'
p193
I572
sS'fVATSRangeSpreadMax'
p194
I412
sS'fFleeDistanceExterior'
p195
I183
sS'fGunSpreadCondBase'
p196
I275
sS'fVATSStrangerDistance'
p197
I419
sS'fRadiationDecayRate'
p198
I357
sS'fFatigueBlockBase'
p199
I177
sS'iAINumberActorsComplexScene'
p200
I15803213
sS'fSpeechAutoSuccessThreshold'
p201
I375
sS'fFurnitureMarker20DeltaZ'
p202
I249
sS'fFurnitureMarker15DeltaX'
p203
I227
sS'iMessCrippledLimbExplodeBonus'
p204
I472
sS'fFurnitureMarker19DeltaZ'
p205
I245
sS'fMoveOneCrippledLegSpeedMult'
p206
I327
sS'fActionPointsSwitchWeapon'
p207
I61
sS'fFurnitureMarker03DeltaZ'
p208
I197
sS'fFurnitureMarker03DeltaY'
p209
I196
sS'fFurnitureMarker03DeltaX'
p210
I195
sS'iXPRewardKillOpponentAverage'
p211
I507
sS'fGunSpreadRunMult'
p212
I279
sS'fKnockbackForceMax'
p213
I302
sS'fCombatUnarmedCritDamageMult'
p214
I135
sS'fDiffMultXPH'
p215
I163
sS'fDiffMultXPE'
p216
I162
sS'fVATSScreenPercentFactor'
p217
I414
sS'fDispActorCharMult'
p218
I167
sS'sPlayerLeavingBorderRegion'
p219
I627
sS'fAVDSkillSurvivalBase'
p220
I37
sS'sTerminalServerText10'
p221
I641
sS'fMoveSneakMult'
p222
I329
sS'fActionPointsRestoreRate'
p223
I57
sS'fOverShoulderOffsetPointX'
p224
I334
sS'fMagicMedicineSkillMult'
p225
I314
sS'fAVDSkillSneakBase'
p226
I35
sS'fFurnitureMarker20DeltaX'
p227
I247
sS'iComputersDisplayRateNotes'
p228
I15803225
sS'iAICombatRestoreHealthPercentage'
p229
I459
sS'fCombatMusicNearCombatOuterRadius'
p230
I118
sS'iXPRewardPickLockVeryHard'
p231
I517
sS'fAISocialTimerForConversationsMin'
p232
I4
sS'fExplosionImageSpaceSwapPower'
p233
I173
sS'sNoPickPocketAgain'
p234
I614
sS'fActionPointsAttackPistol'
p235
I48
sS'fExplosionForceMultAngular'
p236
I171
sS'fCombatSearchExteriorMinRadius'
p237
I124
sS'sNoTalkUnConscious'
p238
I617
sS'fDeathForceDamageMax'
p239
I157
sS'fAVDSkillSmallGunsBase'
p240
I34
sS'fAutoAimMaxDistance'
p241
I70
sS'fAutoAimScreenPercentage'
p242
I73
sS'fFurnitureMarker13DeltaX'
p243
I219
sS'fFurnitureMarker13DeltaY'
p244
I220
sS'fFurnitureMarker13DeltaZ'
p245
I221
sS'fExplosionForceMultLinear'
p246
I172
sS'fFollowRunMinSlowdownMultiplier'
p247
I185
sS'fFurnitureMarker14HeadingDelta'
p248
I226
sS'iXPLevelKillCreatureVeryEasy'
p249
I493
sS'fFurnitureMarker03HeadingDelta'
p250
I198
sS'sLeftArmDamagedIcon'
p251
I607
sS'fGunSpreadSkillMult'
p252
I281
sS'fAutoAimMissRatioHigh'
p253
I71
sS'fSunXExtreme'
p254
I385
sS'fVATSRadialStrength'
p255
I411
sS'fArrowBowTimerMult'
p256
I68
sS'fActionPointsAttackMine'
p257
I46
sS'fCombatMusicPlayerTargetedThreatRatio'
p258
I119
sS'fCombatSneakAttackBonusMult'
p259
I128
sS'iCombatDismemberPartChance'
p260
I461
sS'fOverShoulderPosZ'
p261
I340
sS'fOverShoulderPosX'
p262
I339
sS'iVATSStrangerMaxHP'
p263
I487
sS'fDefaultNoticeTextDisplayTime'
p264
I161
sS'fAVDUnarmedDamageMult'
p265
I41
sS'sCriticalStrikeIcon'
p266
I521
sS'fCombatDialogueAttackMinElapsedTime'
p267
I106
sS'fCombatFleeMaxCoverDistance'
p268
I108
sS'iCombatTargetLostRemoveSearchCount'
p269
I463
sS'fActionPointsFOVMult'
p270
I53
sS'fItemConditionValueBase'
p271
I292
sS'fCombatSpeakAttackChance'
p272
I129
sS'fWeapStrengthReqPenalty'
p273
I434
sS'iSpeechChallengeDifficultyAverage'
p274
I481
sS'iXPRewardKillOpponentEasy'
p275
I508
sS'sKarmaMajorLost'
p276
I548
sS'fDamagePowerAttackBackBonus'
p277
I144
sS'fCombatThreatRatioUpdateTime'
p278
I134
sS'fCombatFleeMinAllyDistance'
p279
I110
sS'iXPRewardPickLockHard'
p280
I515
sS'fDamageToArmorPercentage'
p281
I151
sS'fDamageToWeaponValue'
p282
I156
sS'fGuardPackageAttackRadiusMult'
p283
I269
sS'iDeathDropWeaponChance'
p284
I464
sS'fFatigueBlockMult'
p285
I178
sS'fWorldQuestMarkerMinSize'
p286
I457
sS'fMoveLegConditionMult'
p287
I325
sS'fMinesDelayMin'
p288
I321
sS'fPlayerDetectActorValue'
p289
I352
sS'sKarmicTitleEvil02'
p290
I555
sS'fVATSPlayerTimeUpdateMult'
p291
I408
sS'sKarmicTitleEvil01'
p292
I554
sS'fGunWobbleMultScope'
p293
I282
sS'sDefaultPlayerName'
p294
I522
sS'sKarmicTitleEvil09'
p295
I557
sS'fBarterSellBase'
p296
I76
sS'fFurnitureMarker05HeadingDelta'
p297
I206
sS'fCombatMusicNearCombatInnerRadius'
p298
I117
sS'fIdleChatterCommentTimerMax'
p299
I286
sS'fFurnitureMarker11HeadingDelta'
p300
I214
sS'fBloodSplatterFlareOffsetScale'
p301
I87
sS'iXPRewardKillOpponentVeryEasy'
p302
I510
sS'fBloodSplatterMinSize'
p303
I94
sS'fAIUseWeaponDistance'
p304
I7
sS'fJumpSwimmingMult'
p305
I298
sS'fExplosionSplashRadius'
p306
I175
sS'fAVDActionPointsMult'
p307
I9
sS'fFleeDistanceInterior'
p308
I184
sS'fJumpHeightMin'
p309
I15803211
sS'fVATSShotLongBurstTime'
p310
I415
sS'fAVDHealRateEndurance6Bonus'
p311
I14
sS'fPhysicsDamage3Mass'
p312
I345
sS'sPS3DPadDown'
p313
I621
sS'sKarmicTitleGood11'
p314
I576
sS'fActionPointsAttackHandle'
p315
I44
sS'sKarmicTitleGood13'
p316
I577
sS'fVATSCameraCutAwayDistance'
p317
I391
sS'sKarmicTitleGood15'
p318
I579
sS'fMineExteriorRadiusMult'
p319
I320
sS'fActionPointsRunAndGunMult'
p320
I58
sS'fBarterBuyBase'
p321
I74
sS'fPickPocketActorSkillBase'
p322
I347
sS'sKarmicTitleNeutral02'
p323
I591
sS'iXPLevelKillNPCAverage'
p324
I495
sS'sKarmicTitleNeutral01'
p325
I590
sS'sKarmicTitleNeutral09'
p326
I592
sS'fProjectileInventoryGrenadeTimer'
p327
I354
sS'iBloodSplatterMaxCount'
p328
I460
sS'fAVDSkillBigGunsBase'
p329
I26
sS'iHackingMaxWords'
p330
I15803214
sS'fItemConditionValueMult'
p331
I293
sS'iXPRewardPickLockVeryEasy'
p332
I516
sS'iMessTargetedLimbExplodeBonus'
p333
I475
sS'fAVDHealRateEndurance9Bonus'
p334
I17
sS'fHCSleepDeprivationRate'
p335
I283
sS'fPickPocketTargetSkillMult'
p336
I351
sS'fAVDTagSkillBonus'
p337
I39
sS'iDialogueDummySpeakThisIntOrBelow'
p338
I465
sS'fBloodSplatterMaxOpacity2'
p339
I90
sS'fCombatSearchInteriorMaxRadius'
p340
I125
sS'fSneakBaseValue'
p341
I366
sS'fFurnitureMarker01HeadingDelta'
p342
I190
sS'iMineDisarmExperience'
p343
I477
sS'fSneakRunningMult'
p344
I372
sS'fVATSPlayerDamageMult'
p345
I407
sS'iGuardWarnings'
p346
I467
sS'fAVDSkillBarterBase'
p347
I25
sS'iInventoryAskQuantityAt'
p348
I15803226
sS'sDehydrationNotSick'
p349
I525
sS'sXBDPadUp'
p350
I646
sS'fFurnitureMarker17DeltaY'
p351
I236
sS'fFurnitureMarker17DeltaZ'
p352
I237
sS'sKarmaMajorGained'
p353
I546
sS'fSwimRadiationDamageMult'
p354
I388
sS'iLevelUpSkillPointsBase'
p355
I468
sS'iXPBumpBase'
p356
I488
sS'sNoTalkFleeing'
p357
I616
sS'fMasserAngleFadeEnd'
p358
I316
sS'fWorldfPlayerCursorMinSize'
p359
I458
sS'sRestartBecauseContentRemoved'
p360
I634
sS'iFriendHitCombatAllowed'
p361
I466
sS'fSpeechChallengeDispositionBase'
p362
I376
sS'fVATSCriticalChanceBonus'
p363
I394
sS'fCombatDialogueAttackMaxElapsedTime'
p364
I105
sS'iSpeechChallengeDifficultyEasy'
p365
I482
sS'fGunSpreadArmMult'
p366
I274
sS'fActionPointsAttackOneHandMelee'
p367
I47
sS'fAutoAimMaxDegrees'
p368
I69
sS'iXPLevelKillCreatureVeryHard'
p369
I494
sS'fIronSightsDOFStrengthCap'
p370
I289
sS'sNoWaitHostilActorsNear'
p371
I618
sS'fCombatThreatProximityExplosionAvoidTime'
p372
I133
sS'fActionPointsAttackRifle'
p373
I49
sS'fAVDSkillRepairBase'
p374
I32
sS'sKarmaMinorGained'
p375
I550
sS'sHeadDamagedIcon'
p376
I543
sS'fCombatAbsoluteMaxRangeMult'
p377
I98
sS'fGunShellLifetime'
p378
I15803215
sS'fKillCameraCooldown'
p379
I301
sS'sDownloadsNotAvail'
p380
I526
sS'sLoadingArea'
p381
I609
sS'iRemoveExcessDeadTotalActorCount'
p382
I15803230
sS'fVATSTargetFOVMultFar'
p383
I424
sS'fVATSTargetFOVMultNear'
p384
I426
sS'fFurnitureMarker21DeltaZ'
p385
I253
sS'fFurnitureMarker21DeltaY'
p386
I252
sS'iXPRewardSpeechChallengeVeryEasy'
p387
I518
sS'iLevelUpSkillPointsInterval'
p388
I469
sS'fFurnitureMarker02DeltaZ'
p389
I193
sS'fFurnitureMarker02DeltaX'
p390
I191
sS'fVATSTargetActorZMultFarDist'
p391
I422
sS'fAVDHealthLevelMult'
p392
I20
sS'iMessTorsoExplodeChance'
p393
I476
sS'fSunMinimumGlareScale'
p394
I384
sS'fBloodSplatterMaxSize'
p395
I91
sS'fFurnitureMarker06HeadingDelta'
p396
I210
sS'sRepTitlePosTwoNegThreeDesc'
p397
I633
sS'iXPLevelKillCreatureAverage'
p398
I490
sS'fAVDNPCHealthLevelMult'
p399
I24
sS'fSpeechChallengeFailureBase'
p400
I378
sS'fPlayerPipBoyLightTimer'
p401
I15803212
sS'sPoisonNoWeaponMessage'
p402
I628
sS'fFurnitureMarker11DeltaZ'
p403
I213
sS'sXBDPadX'
p404
I647
sS'sXBDPadY'
p405
I648
sS'iHackingFlashOnDuration'
p406
I15803223
sS'fFurnitureMarker04HeadingDelta'
p407
I202
sS'fFurnitureMarker18HeadingDelta'
p408
I242
sS'fFurnitureMarker14DeltaZ'
p409
I225
sS'fFightAggrBase'
p410
I179
sS'fFurnitureMarker14DeltaX'
p411
I223
sS'fGunParticleCameraDistance'
p412
I270
sS'fDiffMultXPVE'
p413
I164
sS'sKBSpace'
p414
I545
sS'fJumpFallHeightMin'
p415
I296
sS'fVATSDOFStrengthCap'
p416
I396
sS'sLoadingContentMessage'
p417
I610
sS'fVanityModeWheelMax'
p418
I429
sS'fMoveMediumArmorPenalty'
p419
I326
sS'fCombatFleeWaitTime'
p420
I113
sS'fFurnitureMarker06DeltaX'
p421
I207
sS'fPickPocketMaxChance'
p422
I350
sS'fAVDMeleeDamageStrengthOffset'
p423
I22
sS'fDamageToWeaponMeleeMult'
p424
I155
sS'iXPRewardHackComputerEasy'
p425
I503
sS'sKarmaMajorGainedImage'
p426
I547
sS'iSpeechChallengeDifficultyHard'
p427
I483
sS'sNPCModelFemale'
p428
I612
sS'fCombatCurrentWeaponAbsoluteMaxRangeMult'
p429
I101
sS'fPhysicsDamage3Damage'
p430
I344
sS'fRemoveExcessComplexDeadTime'
p431
I15803234
sS'fCombatFollowRadiusMult'
p432
I114
sS'fActionPointsAttackUnarmed'
p433
I51
sS'fGunSpreadCrouchMult'
p434
I277
sS'fVATSGrenadeTargetArea'
p435
I400
sS'fLevelScalingMult'
p436
I304
sS'fDamagePowerAttackBonus'
p437
I145
sS'sBloodParticleDefault'
p438
I519
sS'fGameplayImpulseMultDebrisLarge'
p439
I265
sS'fJumpFallVelocityMin'
p440
I297
sS'sPS3DPadUp'
p441
I624
sS'fIronSightsMotionBlur'
p442
I291
sS'fGunShellDirectionRandomize'
p443
I271
sS'fFurnitureMarker14DeltaY'
p444
I224
sS'iSecundaSize'
p445
I479
sS'sTraitMenuTitleText'
p446
I642
sS'fVATSSmartCameraCheckStepDistance'
p447
I417
sS'iXPRewardPickLockEasy'
p448
I514
sS'iSpeechChallengeDifficultyVeryEasy'
p449
I484
sS'sRepPositiveLoss'
p450
I632
sS'fDamagePowerAttackForwardBonus'
p451
I146
sS'sHairColor15'
p452
I534
sS'sHairColor14'
p453
I533
sS'sHairColor13'
p454
I532
sS'sHairColor12'
p455
I531
sS'sHairColor11'
p456
I530
sS'fMove2HBigPenalty'
p457
I322
sS'fConcussionTimer'
p458
I137
sS'sRightLegDamagedIcon'
p459
I636
sS'fCombatSearchExteriorMediumRadius'
p460
I123
sS'fNPCMaxGunWobbleAngle'
p461
I331
sS'sPS3DPadRight'
p462
I623
sS'fFurnitureMarker02HeadingDelta'
p463
I194
sS'fFurnitureMarker19HeadingDelta'
p464
I246
sS'fVATSRangeSpreadUncertainty'
p465
I413
sS'fFightDistanceBase'
p466
I180
sS'fAVDUnarmedDamageBase'
p467
I40
sS'fFurnitureMarker26DeltaY'
p468
I260
sS'fLeveledActorMultMedium'
p469
I308
sS'fFurnitureMarker20DeltaY'
p470
I248
sS'sKarmicTitleEvil11'
p471
I558
sS'sKarmicTitleEvil13'
p472
I559
sS'sKarmicTitleEvil15'
p473
I561
sS'sKarmicTitleEvil14'
p474
I560
sS'fWeaponConditionSpread9'
p475
I456
sS'fWeaponConditionSpread8'
p476
I455
sS'fWeaponConditionSpread7'
p477
I454
sS'fWeaponConditionSpread6'
p478
I453
sS'fWeaponConditionSpread5'
p479
I452
sS'fWeaponConditionSpread4'
p480
I451
sS'fDispTargetCharMult'
p481
I168
sS'fWeaponConditionSpread2'
p482
I449
sS'fFurnitureMarker19DeltaX'
p483
I243
sS'fFurnitureMarker19DeltaY'
p484
I244
sS'fOverShoulderOffsetPointZ'
p485
I335
sS'fWadeRadiationDamageMult'
p486
I431
sS'fCombatMusicGroupThreatRatioMax'
p487
I116
sS'fVATSSpreadMult'
p488
I418
sS'fOverShoulderStartBlendDist'
p489
I342
sS'fAutoAimMissRatioLow'
p490
I72
sS'fNoticeTextTimePerCharacter'
p491
I333
sS'fVATSSmartCameraCheckHeight'
p492
I416
sS'sKarmaMinorGainedImage'
p493
I551
sS'sSleepDeprevationIncrease'
p494
I638
sS'fFurnitureMarker06DeltaZ'
p495
I209
sS'iNumberActorsInCombatPlayer'
p496
I15803227
sS'fLeveledActorMultEasy'
p497
I306
sS'sKarmicTitleGood09'
p498
I575
sS'fOverShoulderRotMult'
p499
I341
sS'fActionPointsAimAdjustment'
p500
I42
sS'iXPRewardKillOpponentHard'
p501
I509
sS'fGunSpreadDriftMult'
p502
I278
sS'fAVDSkillExplosivesBase'
p503
I28
sS'sKarmicTitleGood02'
p504
I574
sS'sKarmicTitleGood01'
p505
I573
sS'fWeapSkillReqPenalty'
p506
I433
sS'fAISocialchanceForConversationInterior'
p507
I6
sS'fFurnitureMarker21HeadingDelta'
p508
I254
sS'sHairColor10'
p509
I529
sS'fGunDecalCameraDistance'
p510
I15803217
sS'fLeveledActorMultBoss'
p511
I305
sS'iMessIntactLimbExplodeBonus'
p512
I474
sS'fNonAttackGunWobbleMult'
p513
I332
sS'fExplosionSourceRefMult'
p514
I174
sS'sKarmicTitleNeutral30'
p515
I606
sS'fCombatSearchInteriorMinRadius'
p516
I127
sS'sKarmicTitleGood14'
p517
I578
sS'iSoundLevelSilent'
p518
I480
sS'fVATSTargetActorZMultNear'
p519
I423
sS'fVATSTargetFOVMultFarDist'
p520
I425
sS'fRadiationAccumulationRate'
p521
I356
sS'sRepNegativeLoss'
p522
I630
sS'fBloodSplatterMaxOpacity'
p523
I89
sS'fFurnitureMarker06DeltaY'
p524
I208
sS'fOverShoulderOffsetPointZoomingX'
p525
I336
sS'fOverShoulderOffsetPointZoomingY'
p526
I337
sS'fOverShoulderOffsetPointZoomingZ'
p527
I338
sS'fBlockSkillBase'
p528
I82
sS'fArrowBowTimerBase'
p529
I67
sS'sPS3DPadLeft'
p530
I622
sS'fIronSightsGunMotionBlur'
p531
I290
sS'fFurnitureMarker12DeltaY'
p532
I216
sS'fFurnitureMarker12DeltaX'
p533
I215
sS'fFurnitureMarker12DeltaZ'
p534
I217
sS'fSpeechDelay'
p535
I381
sS'iNumberActorsAllowedToFollowPlayer'
p536
I15803228
sS'iRemoveExcessDeadCount'
p537
I15803229
sS'fActionPointsPowerAttackMult'
p538
I55
sS'sPCControlsTextPrefix'
p539
I620
sS'sKBCapital'
p540
I544
sS'fPhysicsDamage2SpeedMin'
p541
I343
sS'fActionPointsAttackLauncher'
p542
I45
sS'fArmorRatingMax'
p543
I66
sS'fCombatItemRestoreTimer'
p544
I115
sS'fVATSMeleeWarpDistanceMult'
p545
I402
sS'fVATSCameraDollyMin'
p546
I392
sS'fExplodeLimbRemovalDelayVATS'
p547
I170
sS'fVATSTargetRotateMult'
p548
I427
sS'fDeathForceForceMin'
p549
I160
sS'fCombatFleeMaxAllyDistance'
p550
I107
sS'fPickPocketActorSkillMult'
p551
I348
sS'fConfidenceCautious'
p552
I140
sS'fVanityModeAutoDelay'
p553
I428
sS'fIdleChatterCommentTimer'
p554
I285
sS'fAVDSkillScienceBase'
p555
I33
sS'fMinDamMultiplier'
p556
I319
sS'fFurnitureMarker04DeltaX'
p557
I199
sS'fFurnitureMarker04DeltaY'
p558
I200
sS'iRemoveExcessDeadComplexCount'
p559
I15803232
sS'fCombatConfidenceModifierMin'
p560
I100
sS'sKarmaMajorLostImage'
p561
I549
sS'iXPRewardKillOpponentVeryHard'
p562
I511
sS'fVATSDamageToWeaponMult'
p563
I397
sS'sNoSleepHostileActorsNear'
p564
I615
sS'sLeftLegDamagedIcon'
p565
I608
sS'fHCStarvationRate'
p566
I284
sS'fGunSpreadCondMult'
p567
I276
sS'fProjectileKnockMultBiped'
p568
I355
sS'fVATSRadialStart'
p569
I410
sS'sCWheelUseStimPack'
p570
I520
sS'fBloodSplatterFadeStart'
p571
I85
sS'iCombatExplodePartChance'
p572
I462
sS'fCombatDetectionDialogueIdleMaxElapsedTime'
p573
I103
sS'fDamagePowerAttackStandBonus'
p574
I148
sS'fSneakSkillMult'
p575
I373
sS'fIronSightsDOFDistance'
p576
I287
sS'fMagicLightHeightOffset'
p577
I312
sS'sPS3DPadX'
p578
I625
sS'sSplashParticles'
p579
I640
sS'fBarterSellMult'
p580
I77
sS'fCombatDamageBonusSneakingMult'
p581
I102
sS'fWarningTimer'
p582
I432
sS'fWeaponConditionSpread3'
p583
I450
sS'fDamageSkillMult'
p584
I150
sS'fVATSCamTransRBStrengthCap'
p585
I390
sS'iXPLevelKillNPCEasy'
p586
I496
sS'fBookPerkBonus'
p587
I96
sS'fVATSDOFRange'
p588
I395
sS'iXPRewardDiscoverMapMarker'
p589
I500
sS'fFightFriendDispBase'
p590
I182
sS'fDamageToWeaponGunMult'
p591
I153
sS'iXPRewardPickLockAverage'
p592
I513
sS'fActionPointsAttackTwoHandMelee'
p593
I50
sS'iXPRewardPickLock'
p594
I512
sS'fBlockMax'
p595
I81
sS'fAIDefaultSpeechMult'
p596
I1
sS'sRepNegativeGain'
p597
I629
sS'fRadiationResistanceAvoidLevel'
p598
I358
sS'sKarmicTitleGood30'
p599
I589
sS'fBlockSkillMult'
p600
I83
sS'fSpeechChallengeMultiplier'
p601
I380
sS'fCombatTeammateFollowRadiusMult'
p602
I132
sS'fSunYExtreme'
p603
I386
sS'fCombatDetectionDialogueIdleMinElapsedTime'
p604
I104
sS'iMapMarkerVisibleDistance'
p605
I15803207
sS'fSpeechChallengeFailureMultiplier'
p606
I379
sS'fActionPointsCrouch'
p607
I52
sS'iXPRewardHackComputerAverage'
p608
I502
sS'fWeaponConditionSpread1'
p609
I448
sS'fIronSightsDOFRange'
p610
I288
sS'iHoursToRespawnCell'
p611
I15803209
sS'fActionPointsReload'
p612
I56
sS'iXPLevelKillNPCVeryHard'
p613
I499
sS'fAVDNPCHealthEnduranceMult'
p614
I23
sS'fFurnitureMarker13HeadingDelta'
p615
I222
sS'fLeveledActorMultHard'
p616
I307
sS'iTraitMenuMaxNumTraits'
p617
I486
sS'iXPLevelKillNPCHard'
p618
I497
sS'fVATSCameraDollyTime'
p619
I393
sS'fGameplayImpulseMultClutter'
p620
I264
sS'iMessIntactLimbDismemberChance'
p621
I473
sS'sNoFastTravelScriptBlock'
p622
I613
sS'iComputersDisplayRateMenus'
p623
I15803224
sS'fGunShellCameraDistance'
p624
I15803216
sS'iHackingOutputRate'
p625
I15803221
sS'fFurnitureMarker12HeadingDelta'
p626
I218
sS'fKarmaModStealing'
p627
I300
sS'fFurnitureMarker02DeltaY'
p628
I192
sS'fSecundaAngleFadeEnd'
p629
I362
sS'fPickPocketAmountMult'
p630
I349
sS'fMaxArmorRating'
p631
I318
sS'fVATSParalyzePalmChance'
p632
I405
sS'fAVDMeleeDamageStrengthMult'
p633
I21
sS'fMagicLightSideOffset'
p634
I313
sS'fSecundaAngleFadeStart'
p635
I363
sS'fFurnitureMarker16DeltaY'
p636
I232
sS'fFurnitureMarker16DeltaX'
p637
I231
sS'fFurnitureMarker16DeltaZ'
p638
I233
sS'sRightArmDamagedIcon'
p639
I635
sS'fBlinkUpTime'
p640
I79
sS'sKarmicTitleEvil08'
p641
I556
sS'iXPRewardHackComputer'
p642
I501
sS'sRepPositiveGain'
p643
I631
sS'fVATSRadialRampup'
p644
I409
sS'fAVDSkillEnergyWeaponsBase'
p645
I27
sS'fSneakAmbushNonTargetMod'
p646
I365
sS'fSandboxDurationMultIdleMarker'
p647
I361
sS'fAVDHealRateEndurance10Bonus'
p648
I13
sS'fActionPointsHeal'
p649
I54
sS'fExplosionWaterRadiusRatio'
p650
I176
sS'sKarmaMinorLost'
p651
I552
sS'fDamagePowerAttackSideBonus'
p652
I147
sS'fActionPointsToggleWeaponDrawn'
p653
I62
sS'sHairColor9'
p654
I542
sS'sHairColor8'
p655
I541
sS'fFurnitureMarker23DeltaY'
p656
I256
sS'fFurnitureMarker23DeltaX'
p657
I255
sS'fFurnitureMarker23DeltaZ'
p658
I257
sS'sHairColor3'
p659
I536
sS'sHairColor2'
p660
I535
sS'sHairColor1'
p661
I528
sS'sHairColor0'
p662
I527
sS'sHairColor7'
p663
I540
sS'iHackingInputRate'
p664
I15803220
sS'sHairColor5'
p665
I538
sS'sHairColor4'
p666
I537
sS'fProjectileInventoryGrenadeFreakoutTime'
p667
I353
sS'fActionPointsSustainedFireMult'
p668
I60
sS'sMorphine'
p669
I611
sS'sDehydrationDecrease'
p670
I523
sS'sKarmicTitleEvil29'
p671
I571
sS'sKarmicTitleEvil24'
p672
I566
sS'sKarmicTitleEvil25'
p673
I567
sS'iLevItemLevelDifferenceMax'
p674
I15803235
sS'sKarmicTitleEvil27'
p675
I569
sS'sKarmicTitleEvil20'
p676
I562
sS'sKarmicTitleEvil21'
p677
I563
sS'sKarmicTitleEvil22'
p678
I564
sS'sKarmicTitleEvil23'
p679
I565
sS'fMoveBaseSpeed'
p680
I323
sS'fVanityModeWheelMin'
p681
I430
sS'sKarmicTitleEvil28'
p682
I570
sS'fFurnitureMarker04DeltaZ'
p683
I201
ss.