(dp1
S'GMST'
p2
(dp3
S'fCombatConfidenceModifierMin'
p4
I475513
sS'iDebrisMaxCount'
p5
I15803219
sS'fAVDSkillMedicineBase'
p6
I575528
sS'fCombatSearchExteriorMaxRadius'
p7
I690504
sS'sKarmaMajorLostImage'
p8
I706472
sS'fSneakActionMult'
p9
I134257
sS'iXPLevelKillCreatureEasy'
p10
I173108
sS'fBloodSplatterFlareSize'
p11
I203169
sS'fAVDHealRateEndurance7Bonus'
p12
I159435
sS'fMagicAreaScaleMin'
p13
I85117
sS'fAVDCarryWeightsBase'
p14
I157857
sS'fVATSMoveCameraLimbMult'
p15
I118673
sS'fFurnitureMarker20HeadingDelta'
p16
I338173
sS'fMoveWeightMax'
p17
I15803237
sS'fSunZExtreme'
p18
I2584
sS'fCombatFleeMaxDoorDistance'
p19
I173128
sS'fAVDSkillSpeechBase'
p20
I575534
sS'fSplashSoundMedium'
p21
I635222
sS'fDeathForceDamageMax'
p22
I85634
sS'fFurnitureMarker05DeltaY'
p23
I708007
sS'fFurnitureMarker05DeltaX'
p24
I708006
sS'fFurnitureMarker05DeltaZ'
p25
I708008
sS'iXPDeathRewardHealthThreshold'
p26
I157853
sS'fConfidenceAverage'
p27
I481858
sS'fSpeechAutoSuccessThreshold'
p28
I152152
sS'fFollowSpaceBetweenFollowers'
p29
I462159
sS'fAVDSkillUnarmedBase'
p30
I575536
sS'fAVDSkillMeleeWeaponsBase'
p31
I575529
sS'fItemRepairCostMult'
p32
I369070
sS'fBloodSplatterMinOpacity2'
p33
I203168
sS'fSneakBootWeightMult'
p34
I347230
sS'iXPRewardHackComputerVeryEasy'
p35
I157856
sS'iXPLevelKillCreatureHard'
p36
I98992
sS'fBlinkDownTime'
p37
I312746
sS'fEssentialDeathTime'
p38
I15803211
sS'fCombatConfidenceModifierMax'
p39
I475511
sS'fAISocialTimerForConversationsMax'
p40
I766505
sS'fVATSTargetActorZMultFar'
p41
I118668
sS'fActionPointsStand'
p42
I215077
sS'fWeaponConditionJam1'
p43
I570887
sS'fWeaponConditionJam3'
p44
I570885
sS'fWeaponConditionJam2'
p45
I570886
sS'fWeaponConditionJam4'
p46
I570884
sS'fGunShellEjectSpeed'
p47
I2051
sS'fVATSMoveCameraXPercent'
p48
I118658
sS'fAVDActionPointsBase'
p49
I215064
sS'iMasserSize'
p50
I380829
sS'iHackingFlashOffDuration'
p51
I15803223
sS'fBlockAmountWeaponMult'
p52
I752835
sS'fDeathForceDamageMin'
p53
I86440
sS'fSneakLightMult'
p54
I103027
sS'iXPLevelKillCreatureVeryHard'
p55
I98993
sS'fSandboxDurationMultFurniture'
p56
I467773
sS'fFurnitureMarker01DeltaY'
p57
I15050
sS'fFurnitureMarker01DeltaX'
p58
I15049
sS'fDamageGunWeapCondMult'
p59
I143721
sS'fFurnitureMarker01DeltaZ'
p60
I15051
sS'fVATSCamTransRBStart'
p61
I153786
sS'fBloodSplatterOpacityChance'
p62
I204366
sS'fSpeechChallengeDispositionMultiplier'
p63
I152154
sS'fJumpFallHeightExponent'
p64
I814694
sS'fGrenadeFriction'
p65
I86319
sS'fPlayerDeathReloadTime'
p66
I15803206
sS'fConfidenceBrave'
p67
I481859
sS'iProjectileMineShooterCanTrigger'
p68
I266508
sS'fVATSDistanceFactor'
p69
I212186
sS'fBarterBuyMult'
p70
I201157
sS'iHackingDumpRate'
p71
I15803220
sS'fDispActorCharBase'
p72
I130999
sS'fDamageGunWeapCondBase'
p73
I143722
sS'iXPRewardHackComputerVeryHard'
p74
I757077
sS'fDamageMeleeWeapCondBase'
p75
I143724
sS'fCombatPlayerLimbDamageMult'
p76
I250913
sS'fFightDistanceMult'
p77
I103557
sS'fDamageToWeaponLauncherMult'
p78
I460690
sS'fFurnitureMarker18DeltaZ'
p79
I611610
sS'fFurnitureMarker18DeltaY'
p80
I611609
sS'fFurnitureMarker18DeltaX'
p81
I611608
sS'fGameplayImpulseMultBiped'
p82
I100672
sS'fAVDCarryWeightMult'
p83
I516059
sS'fArmorRatingBase'
p84
I250655
sS'fGrenadeRestitution'
p85
I86318
sS'fKarmaModStealing'
p86
I398752
sS'fMoveTwoCrippledLegsSpeedMult'
p87
I423280
sS'fCombatFleeNormalDistance'
p88
I173125
sS'sHairColor11'
p89
I756374
sS'fWeaponConditionRateOfFire9'
p90
I219535
sS'fWeaponConditionRateOfFire8'
p91
I219533
sS'fWeaponConditionRateOfFire7'
p92
I219532
sS'fWeaponConditionRateOfFire6'
p93
I219531
sS'fWeaponConditionRateOfFire5'
p94
I219528
sS'fWeaponConditionRateOfFire4'
p95
I219526
sS'fWeaponConditionRateOfFire3'
p96
I219525
sS'fWeaponConditionRateOfFire2'
p97
I219524
sS'fWeaponConditionRateOfFire1'
p98
I219523
sS'fDeathForceForceMax'
p99
I85633
sS'fFurnitureMarker16HeadingDelta'
p100
I592126
sS'fAVDHealRateEndurance8Bonus'
p101
I159437
sS'iXPLevelKillNPCVeryEasy'
p102
I770800
sS'sHairColor6'
p103
I756378
sS'fAVDHealthEnduranceMult'
p104
I159433
sS'fGunSpreadArmBase'
p105
I283216
sS'fActionPointsVATSMeleeMult'
p106
I752840
sS'fDamageToWeaponEnergyMult'
p107
I460689
sS'fSplashSoundHeavy'
p108
I635223
sS'fBloodSplatterDuration'
p109
I197844
sS'sKarmaMinorLostImage'
p110
I706470
sS'fVATSH2HWarpDistanceMult'
p111
I450004
sS'fRemoveExcessDeadTime'
p112
I15803234
sS'fKnockdownCurrentHealthThreshold'
p113
I172828
sS'sCriticalStrikeIcon'
p114
I86493
sS'fMagicLightForwardOffset'
p115
I207032
sS'fCombatSpeakHitChance'
p116
I87633
sS'fActionPointsAttackGrenade'
p117
I215066
sS'fVATSStrangerDistance'
p118
I467897
sS'fFurnitureMarker15DeltaX'
p119
I556720
sS'fFurnitureMarker15DeltaY'
p120
I556721
sS'fAutoAimMaxDegreesMiss'
p121
I15803209
sS'fMagicLightSideOffset'
p122
I207033
sS'fSneakSoundLosMult'
p123
I103028
sS'sRightArmDamagedIcon'
p124
I86497
sS'iRemoveExcessDeadComplexTotalActorCount'
p125
I15803232
sS'fDamageSkillBase'
p126
I143725
sS'fSneakMaxDistance'
p127
I124857
sS'fFurnitureMarker17HeadingDelta'
p128
I446597
sS'fVATSPlaybackDelay'
p129
I450006
sS'fAddictionUsageMonitorThreshold'
p130
I460863
sS'iXPLevelKillNPCEasy'
p131
I770799
sS'fSneakBootWeightBase'
p132
I103026
sS'fSneakExteriorDistanceMult'
p133
I124858
sS'fCombatSearchInteriorMediumRadius'
p134
I690500
sS'fBloodSplatterFlareMult'
p135
I203170
sS'fDamageSkillMult'
p136
I143726
sS'fVATSDOFRange'
p137
I116446
sS'fAVDUnarmedDamageBase'
p138
I441588
sS'fAVDSkillLockpickBase'
p139
I575527
sS'fCommentOnPlayerActionsTimer'
p140
I460289
sS'iXPRewardHackComputerHard'
p141
I757749
sS'fMagicAreaScaleMax'
p142
I85118
sS'sOverEncumbered'
p143
I686504
sS'fExplodeLimbRemovalDelay'
p144
I201471
sS'fFurnitureMarker11DeltaX'
p145
I15066
sS'fFurnitureMarker11DeltaY'
p146
I15067
sS'fDiffMultXPVH'
p147
I505577
sS'fAISocialchanceForConversation'
p148
I646905
sS'fChase3rdPersonZUnitsPerSecond'
p149
I249034
sS'iXPRewardDiscoverMapMarker'
p150
I757073
sS'fCombatSpeakHitThreshold'
p151
I87634
sS'fVATSRangeSpreadMax'
p152
I472309
sS'fFleeDistanceExterior'
p153
I86449
sS'fGunSpreadCondBase'
p154
I824607
sS'fFurnitureMarker15DeltaZ'
p155
I556722
sS'fRadiationDecayRate'
p156
I144824
sS'fFatigueBlockBase'
p157
I752836
sS'iAINumberActorsComplexScene'
p158
I15803214
sS'iSpeechChallengeDifficultyVeryHard'
p159
I99828
sS'fAVDHealthEnduranceOffset'
p160
I215062
sS'iMessCrippledLimbExplodeBonus'
p161
I837150
sS'fDispTargetCharMult'
p162
I131001
sS'fMoveOneCrippledLegSpeedMult'
p163
I423281
sS'fActionPointsSwitchWeapon'
p164
I215079
sS'fFurnitureMarker03DeltaZ'
p165
I494318
sS'fFurnitureMarker03DeltaY'
p166
I494317
sS'fFurnitureMarker03DeltaX'
p167
I494316
sS'iXPRewardKillOpponentAverage'
p168
I474647
sS'fGunSpreadRunMult'
p169
I17509
sS'fKnockbackForceMax'
p170
I139395
sS'fCombatUnarmedCritDamageMult'
p171
I517680
sS'fDiffMultXPH'
p172
I505578
sS'fMagicLightHeightOffset'
p173
I207031
sS'fVATSScreenPercentFactor'
p174
I380758
sS'fDispActorCharMult'
p175
I131000
sS'sPlayerLeavingBorderRegion'
p176
I371768
sS'sTerminalServerText10'
p177
I751086
sS'fMoveSneakMult'
p178
I85560
sS'iXPRewardPickLock'
p179
I757078
sS'fMagicMedicineSkillMult'
p180
I541292
sS'fAVDSkillSneakBase'
p181
I575533
sS'iComputersDisplayRateNotes'
p182
I15803226
sS'iAICombatRestoreHealthPercentage'
p183
I409221
sS'iXPRewardPickLockVeryHard'
p184
I757081
sS'fAISocialTimerForConversationsMin'
p185
I766504
sS'fExplosionImageSpaceSwapPower'
p186
I594120
sS'sNoPickPocketAgain'
p187
I695570
sS'fActionPointsAttackPistol'
p188
I215070
sS'fExplosionForceMultAngular'
p189
I85685
sS'fCombatSearchExteriorMinRadius'
p190
I690502
sS'sNoTalkUnConscious'
p191
I695571
sS'fGunSpreadSkillBase'
p192
I839196
sS'fAVDSkillSmallGunsBase'
p193
I575532
sS'fAutoAimMaxDistance'
p194
I85795
sS'fAutoAimScreenPercentage'
p195
I85796
sS'fFurnitureMarker13DeltaX'
p196
I15074
sS'fFurnitureMarker13DeltaY'
p197
I15075
sS'fFurnitureMarker13DeltaZ'
p198
I15076
sS'fExplosionForceMultLinear'
p199
I85686
sS'fFollowRunMinSlowdownMultiplier'
p200
I437116
sS'fFurnitureMarker14HeadingDelta'
p201
I16147
sS'iXPLevelKillCreatureVeryEasy'
p202
I173107
sS'fFurnitureMarker03HeadingDelta'
p203
I494319
sS'fVATSStrangerOdds'
p204
I726473
sS'fGunSpreadSkillMult'
p205
I17508
sS'fAutoAimMissRatioHigh'
p206
I183651
sS'fSunXExtreme'
p207
I2582
sS'fVATSRadialStrength'
p208
I113763
sS'fArrowBowTimerMult'
p209
I160614
sS'fActionPointsAttackMine'
p210
I215068
sS'fBloodSplatterMinOpacity'
p211
I467900
sS'fCombatSneakAttackBonusMult'
p212
I284227
sS'iCombatDismemberPartChance'
p213
I84840
sS'fOverShoulderPosZ'
p214
I16999
sS'fOverShoulderPosX'
p215
I87571
sS'iVATSStrangerMaxHP'
p216
I726474
sS'fDefaultNoticeTextDisplayTime'
p217
I100201
sS'fAVDUnarmedDamageMult'
p218
I441589
sS'fFurnitureMarker15HeadingDelta'
p219
I556723
sS'fCombatDialogueAttackMinElapsedTime'
p220
I139455
sS'fCombatFleeMaxCoverDistance'
p221
I173129
sS'iCombatTargetLostRemoveSearchCount'
p222
I686157
sS'fActionPointsFOVMult'
p223
I136194
sS'fCombatSpeakAttackChance'
p224
I86107
sS'fFatigueBlockMult'
p225
I752837
sS'iXPRewardKillOpponentEasy'
p226
I474646
sS'sKarmaMajorLost'
p227
I704361
sS'fDamagePowerAttackBackBonus'
p228
I284487
sS'fCombatThreatRatioUpdateTime'
p229
I154721
sS'fCombatFleeMinAllyDistance'
p230
I173127
sS'iXPRewardPickLockHard'
p231
I757750
sS'fDamageToArmorPercentage'
p232
I460692
sS'fGuardPackageAttackRadiusMult'
p233
I658433
sS'iDeathDropWeaponChance'
p234
I199171
sS'iSpeechChallengeDifficultyAverage'
p235
I152150
sS'fWorldQuestMarkerMinSize'
p236
I834790
sS'fMoveLegConditionMult'
p237
I139664
sS'fMinesDelayMin'
p238
I370026
sS'fPlayerDetectActorValue'
p239
I401333
sS'fVATSPlayerTimeUpdateMult'
p240
I113797
sS'fVATSTargetFOVMultNear'
p241
I118662
sS'fBarterSellBase'
p242
I201158
sS'fFurnitureMarker05HeadingDelta'
p243
I708009
sS'fIdleChatterCommentTimerMax'
p244
I462100
sS'fFurnitureMarker11HeadingDelta'
p245
I15069
sS'fBloodSplatterFlareOffsetScale'
p246
I198566
sS'iXPRewardKillOpponentVeryEasy'
p247
I649398
sS'fBloodSplatterMinSize'
p248
I197842
sS'fAIUseWeaponDistance'
p249
I253019
sS'fJumpSwimmingMult'
p250
I341525
sS'fExplosionSplashRadius'
p251
I493689
sS'fAVDActionPointsMult'
p252
I215065
sS'fFurnitureMarker21DeltaY'
p253
I137193
sS'fJumpHeightMin'
p254
I15803212
sS'iXPRewardSpeechChallengeVeryEasy'
p255
I157855
sS'fAVDHealRateEndurance6Bonus'
p256
I159434
sS'fActionPointsAttackHandle'
p257
I215067
sS'fVATSCameraCutAwayDistance'
p258
I786024
sS'fMineExteriorRadiusMult'
p259
I101969
sS'fActionPointsRunAndGunMult'
p260
I136195
sS'sNoSleepHostileActorsNear'
p261
I474457
sS'fBarterBuyBase'
p262
I201150
sS'fPickPocketActorSkillBase'
p263
I517678
sS'iXPLevelKillNPCAverage'
p264
I770798
sS'fProjectileInventoryGrenadeTimer'
p265
I262661
sS'iBloodSplatterMaxCount'
p266
I543076
sS'fAVDSkillBigGunsBase'
p267
I575542
sS'iHackingMaxWords'
p268
I15803215
sS'fItemConditionValueMult'
p269
I201161
sS'iXPRewardPickLockVeryEasy'
p270
I157854
sS'iMessTargetedLimbExplodeBonus'
p271
I837153
sS'fAVDHealRateEndurance9Bonus'
p272
I159438
sS'sMorphine'
p273
I518490
sS'fPickPocketTargetSkillMult'
p274
I517676
sS'fVATSCameraDollyTime'
p275
I310182
sS'fBloodSplatterMaxOpacity2'
p276
I203167
sS'fSneakBaseValue'
p277
I211906
sS'fFurnitureMarker01HeadingDelta'
p278
I15052
sS'iMineDisarmExperience'
p279
I801988
sS'fSneakRunningMult'
p280
I347238
sS'fVATSPlayerDamageMult'
p281
I179923
sS'iGuardWarnings'
p282
I649436
sS'fAVDSkillBarterBase'
p283
I575525
sS'iInventoryAskQuantityAt'
p284
I15803227
sS'fGameplayImpulseMultProp'
p285
I100671
sS'fFurnitureMarker17DeltaX'
p286
I446594
sS'fFurnitureMarker17DeltaY'
p287
I446595
sS'fFurnitureMarker17DeltaZ'
p288
I446596
sS'sKarmaMajorGained'
p289
I704360
sS'fSwimRadiationDamageMult'
p290
I837149
sS'iLevelUpSkillPointsBase'
p291
I394152
sS'iXPBumpBase'
p292
I800534
sS'sNoTalkFleeing'
p293
I173820
sS'fMasserAngleFadeEnd'
p294
I786262
sS'iSoundLevelSilent'
p295
I103555
sS'fSpeechChallengeDispositionBase'
p296
I152155
sS'sLeftArmDamagedIcon'
p297
I86495
sS'fCombatDialogueAttackMaxElapsedTime'
p298
I139456
sS'iSpeechChallengeDifficultyEasy'
p299
I152149
sS'fGunSpreadArmMult'
p300
I283217
sS'fActionPointsAttackOneHandMelee'
p301
I215069
sS'fAutoAimMaxDegrees'
p302
I132651
sS'fIronSightsDOFStrengthCap'
p303
I119797
sS'sNoWaitHostilActorsNear'
p304
I474463
sS'fCombatThreatProximityExplosionAvoidTime'
p305
I512711
sS'fActionPointsAttackRifle'
p306
I139696
sS'fAVDSkillRepairBase'
p307
I575530
sS'sKarmaMinorGained'
p308
I704362
sS'sHeadDamagedIcon'
p309
I86494
sS'fCombatAbsoluteMaxRangeMult'
p310
I727078
sS'fGunShellLifetime'
p311
I15803216
sS'fVATSTargetActorZMultNear'
p312
I118654
sS'sDownloadsNotAvail'
p313
I518681
sS'sLoadingArea'
p314
I119004
sS'iRemoveExcessDeadTotalActorCount'
p315
I15803231
sS'fVATSTargetFOVMultFar'
p316
I118653
sS'fSunMinimumGlareScale'
p317
I380908
sS'fGunWobbleMultScope'
p318
I424434
sS'fFurnitureMarker21DeltaZ'
p319
I137194
sS'fFleeDistanceInterior'
p320
I284857
sS'fFurnitureMarker21DeltaX'
p321
I137192
sS'iLevelUpSkillPointsInterval'
p322
I394153
sS'fFurnitureMarker02DeltaZ'
p323
I15055
sS'fFurnitureMarker02DeltaX'
p324
I15053
sS'fVATSTargetActorZMultFarDist'
p325
I204208
sS'fAVDHealthLevelMult'
p326
I342514
sS'iMessTorsoExplodeChance'
p327
I837154
sS'fFurnitureMarker04HeadingDelta'
p328
I494315
sS'fBloodSplatterMaxSize'
p329
I197846
sS'fFurnitureMarker06HeadingDelta'
p330
I708014
sS'iXPLevelKillCreatureAverage'
p331
I98991
sS'fAVDNPCHealthLevelMult'
p332
I714347
sS'fSpeechChallengeFailureBase'
p333
I152156
sS'fPlayerPipBoyLightTimer'
p334
I15803213
sS'fFurnitureMarker11DeltaZ'
p335
I15068
sS'iHackingFlashOnDuration'
p336
I15803224
sS'fFurnitureMarker18HeadingDelta'
p337
I611611
sS'fFurnitureMarker14DeltaZ'
p338
I16146
sS'fFurnitureMarker14DeltaY'
p339
I16145
sS'fFurnitureMarker14DeltaX'
p340
I16144
sS'fGunParticleCameraDistance'
p341
I126733
sS'sKBSpace'
p342
I695569
sS'fJumpFallHeightMin'
p343
I607942
sS'fVATSDOFStrengthCap'
p344
I116447
sS'fVanityModeWheelMax'
p345
I15803208
sS'fCombatFleeWaitTime'
p346
I173124
sS'fBloodSplatterMaxOpacity'
p347
I197843
sS'fPickPocketMaxChance'
p348
I517679
sS'fAVDMeleeDamageStrengthOffset'
p349
I155060
sS'fDamageToWeaponMeleeMult'
p350
I460691
sS'iXPRewardHackComputerEasy'
p351
I757076
sS'sKarmaMajorGainedImage'
p352
I706473
sS'iSpeechChallengeDifficultyHard'
p353
I152151
sS'sNPCModelFemale'
p354
I103452
sS'fCombatCurrentWeaponAbsoluteMaxRangeMult'
p355
I660667
sS'fSpeechChallengeFailureMultiplier'
p356
I152157
sS'fRemoveExcessComplexDeadTime'
p357
I15803235
sS'fCombatFollowRadiusMult'
p358
I450077
sS'fActionPointsAttackUnarmed'
p359
I215072
sS'fGunSpreadCrouchMult'
p360
I17510
sS'fVATSGrenadeTargetArea'
p361
I726945
sS'fLevelScalingMult'
p362
I173123
sS'fOverShoulderOffsetPointZoomingZ'
p363
I87577
sS'sBloodParticleDefault'
p364
I119496
sS'fGameplayImpulseMultDebrisLarge'
p365
I617846
sS'fJumpFallVelocityMin'
p366
I398656
sS'fIronSightsMotionBlur'
p367
I101458
sS'fGunShellDirectionRandomize'
p368
I2053
sS'fCombatFleeMinCoverDistance'
p369
I173126
sS'iSecundaSize'
p370
I117960
sS'fVATSSmartCameraCheckStepDistance'
p371
I373056
sS'sRightLegDamagedIcon'
p372
I86498
sS'iXPRewardPickLockEasy'
p373
I757080
sS'iSpeechChallengeDifficultyVeryEasy'
p374
I152148
sS'fDamagePowerAttackForwardBonus'
p375
I284493
sS'sHairColor15'
p376
I756382
sS'sHairColor14'
p377
I756368
sS'sHairColor13'
p378
I756373
sS'sHairColor12'
p379
I756375
sS'fMoveRunMult'
p380
I85559
sS'sHairColor10'
p381
I756372
sS'fConcussionTimer'
p382
I122880
sS'fAVDCritLuckBase'
p383
I215063
sS'fCombatSearchExteriorMediumRadius'
p384
I690503
sS'fNPCMaxGunWobbleAngle'
p385
I281782
sS'fAVDMeleeDamageStrengthMult'
p386
I155061
sS'fFurnitureMarker19HeadingDelta'
p387
I204828
sS'fVATSRangeSpreadUncertainty'
p388
I196007
sS'fFightDistanceBase'
p389
I103556
sS'fFurnitureMarker20DeltaZ'
p390
I338174
sS'fFurnitureMarker20DeltaX'
p391
I338176
sS'fFurnitureMarker20DeltaY'
p392
I338175
sS'fKarmaModKillingEvilActor'
p393
I592122
sS'fWeaponConditionSpread9'
p394
I641387
sS'fWeaponConditionSpread8'
p395
I641386
sS'fWeaponConditionSpread7'
p396
I641385
sS'fWeaponConditionSpread6'
p397
I641384
sS'fWeaponConditionSpread5'
p398
I641383
sS'fWeaponConditionSpread4'
p399
I641382
sS'fFurnitureMarker19DeltaZ'
p400
I204827
sS'fWeaponConditionSpread2'
p401
I641380
sS'fFurnitureMarker19DeltaX'
p402
I204825
sS'fFurnitureMarker19DeltaY'
p403
I204826
sS'fOverShoulderOffsetPointZ'
p404
I87574
sS'fWadeRadiationDamageMult'
p405
I719222
sS'fOverShoulderOffsetPointX'
p406
I87573
sS'fFurnitureMarker16DeltaX'
p407
I592123
sS'fVATSSpreadMult'
p408
I332791
sS'fOverShoulderStartBlendDist'
p409
I17000
sS'fAutoAimMissRatioLow'
p410
I183650
sS'fNoticeTextTimePerCharacter'
p411
I100203
sS'fVATSShotLongBurstTime'
p412
I349163
sS'fVATSSmartCameraCheckHeight'
p413
I637511
sS'sKarmaMinorGainedImage'
p414
I706471
sS'iNumberActorsInCombatPlayer'
p415
I15803228
sS'fLeveledActorMultEasy'
p416
I373811
sS'fOverShoulderRotMult'
p417
I87572
sS'iXPRewardKillOpponentHard'
p418
I474652
sS'fGunSpreadDriftMult'
p419
I820446
sS'fAVDSkillExplosivesBase'
p420
I575526
sS'fAISocialchanceForConversationInterior'
p421
I646906
sS'fFurnitureMarker21HeadingDelta'
p422
I137195
sS'fGunDecalCameraDistance'
p423
I15803218
sS'fLeveledActorMultBoss'
p424
I373808
sS'iMessIntactLimbExplodeBonus'
p425
I837152
sS'fNonAttackGunWobbleMult'
p426
I224149
sS'fExplosionSourceRefMult'
p427
I155961
sS'fCombatSearchInteriorMinRadius'
p428
I690501
sS'fWorldfPlayerCursorMinSize'
p429
I834789
sS'fActionPointsAimAdjustment'
p430
I140671
sS'fVATSTargetFOVMultFarDist'
p431
I118649
sS'fRadiationAccumulationRate'
p432
I144825
sS'fFurnitureMarker06DeltaZ'
p433
I708013
sS'fFurnitureMarker06DeltaX'
p434
I708011
sS'fFurnitureMarker06DeltaY'
p435
I708012
sS'fOverShoulderOffsetPointZoomingX'
p436
I87575
sS'fOverShoulderOffsetPointZoomingY'
p437
I87576
sS'fDamagePowerAttackBonus'
p438
I284488
sS'fArrowBowTimerBase'
p439
I160613
sS'fIronSightsGunMotionBlur'
p440
I119796
sS'fFurnitureMarker12DeltaY'
p441
I15071
sS'fFurnitureMarker12DeltaX'
p442
I15070
sS'fFurnitureMarker12DeltaZ'
p443
I15072
sS'fSpeechDelay'
p444
I355889
sS'iNumberActorsAllowedToFollowPlayer'
p445
I15803229
sS'iRemoveExcessDeadCount'
p446
I15803230
sS'fActionPointsPowerAttackMult'
p447
I215075
sS'sPCControlsTextPrefix'
p448
I704074
sS'fActionPointsAttackLauncher'
p449
I139697
sS'fArmorRatingMax'
p450
I820445
sS'fCombatItemRestoreTimer'
p451
I482335
sS'sKarmaMinorLost'
p452
I704363
sS'fVATSCameraDollyMin'
p453
I443149
sS'fExplodeLimbRemovalDelayVATS'
p454
I201472
sS'fAVDNPCHealthEnduranceMult'
p455
I714346
sS'fDeathForceForceMin'
p456
I85632
sS'fCombatFleeMaxAllyDistance'
p457
I173130
sS'fPickPocketActorSkillMult'
p458
I517677
sS'fConfidenceCautious'
p459
I481857
sS'fVanityModeAutoDelay'
p460
I2585
sS'fIdleChatterCommentTimer'
p461
I462099
sS'fAVDSkillScienceBase'
p462
I575531
sS'fFurnitureMarker04DeltaX'
p463
I494312
sS'fFurnitureMarker04DeltaY'
p464
I494313
sS'fFurnitureMarker04DeltaZ'
p465
I494314
sS'fLeveledActorMultMedium'
p466
I373810
sS'fAISocialRadiusToTriggerConversationInterior'
p467
I466805
sS'iXPRewardKillOpponentVeryHard'
p468
I701527
sS'fVATSDamageToWeaponMult'
p469
I827411
sS'fDamageMeleeWeapCondMult'
p470
I143723
sS'sLeftLegDamagedIcon'
p471
I86496
sS'fGunSpreadCondMult'
p472
I820447
sS'fProjectileKnockMultBiped'
p473
I86439
sS'iXPRewardHackComputer'
p474
I757074
sS'fVATSRadialStart'
p475
I113764
sS'fBloodSplatterFadeStart'
p476
I197845
sS'iCombatExplodePartChance'
p477
I117688
sS'fCombatDetectionDialogueIdleMaxElapsedTime'
p478
I197317
sS'fDamagePowerAttackStandBonus'
p479
I284497
sS'fSneakSkillMult'
p480
I103029
sS'fIronSightsDOFDistance'
p481
I113761
sS'sSplashParticles'
p482
I147717
sS'fBarterSellMult'
p483
I201159
sS'fCombatDamageBonusSneakingMult'
p484
I517209
sS'fWarningTimer'
p485
I649437
sS'fWeaponConditionSpread3'
p486
I641381
sS'fVATSCamTransRBStrengthCap'
p487
I153787
sS'fMasserAngleFadeStart'
p488
I786263
sS'fFurnitureMarker23HeadingDelta'
p489
I118689
sS'fRepairSkillMax'
p490
I474466
sS'fFightFriendDispBase'
p491
I103756
sS'fDamageToWeaponGunMult'
p492
I460688
sS'iXPRewardPickLockAverage'
p493
I757079
sS'fActionPointsAttackTwoHandMelee'
p494
I215071
sS'fActionPointsRestoreRate'
p495
I131213
sS'fBlockMax'
p496
I752838
sS'fAIDefaultSpeechMult'
p497
I120699
sS'fRadiationResistanceAvoidLevel'
p498
I399643
sS'fBlockSkillMult'
p499
I752839
sS'fSpeechChallengeMultiplier'
p500
I152153
sS'fCombatTeammateFollowRadiusMult'
p501
I450076
sS'fSunYExtreme'
p502
I2583
sS'fCombatDetectionDialogueIdleMinElapsedTime'
p503
I197316
sS'iMapMarkerVisibleDistance'
p504
I15803207
sS'fActionPointsCrouch'
p505
I215073
sS'iXPRewardHackComputerAverage'
p506
I757075
sS'fWeaponConditionSpread1'
p507
I641379
sS'fIronSightsDOFRange'
p508
I113760
sS'iHoursToRespawnCell'
p509
I15803210
sS'fActionPointsReload'
p510
I215076
sS'iXPLevelKillNPCVeryHard'
p511
I770796
sS'fVATSTargetRotateMult'
p512
I87663
sS'fFurnitureMarker13HeadingDelta'
p513
I15077
sS'fLeveledActorMultHard'
p514
I373809
sS'iXPLevelKillNPCHard'
p515
I770797
sS'fAVDTagSkillBonus'
p516
I342515
sS'fGameplayImpulseMultClutter'
p517
I100673
sS'iMessIntactLimbDismemberChance'
p518
I837151
sS'iComputersDisplayRateMenus'
p519
I15803225
sS'fGunShellCameraDistance'
p520
I15803217
sS'iHackingOutputRate'
p521
I15803222
sS'fFurnitureMarker12HeadingDelta'
p522
I15073
sS'fPickPocketAmountMult'
p523
I517060
sS'fFurnitureMarker02DeltaY'
p524
I15054
sS'fSecundaAngleFadeEnd'
p525
I786264
sS'fMaxArmorRating'
p526
I517048
sS'fVATSParalyzePalmChance'
p527
I122533
sS'fFurnitureMarker02HeadingDelta'
p528
I15056
sS'fCombatSearchInteriorMaxRadius'
p529
I690499
sS'fSecundaAngleFadeStart'
p530
I786265
sS'fFurnitureMarker16DeltaY'
p531
I592124
sS'fFightAggrBase'
p532
I103755
sS'fFurnitureMarker16DeltaZ'
p533
I592125
sS'iFriendHitCombatAllowed'
p534
I265993
sS'fBlinkUpTime'
p535
I312747
sS'fItemConditionValueBase'
p536
I201160
sS'fVATSRadialRampup'
p537
I116448
sS'fAVDSkillEnergyWeaponsBase'
p538
I575543
sS'fSneakAmbushNonTargetMod'
p539
I367311
sS'fSandboxDurationMultIdleMarker'
p540
I467781
sS'fAVDHealRateEndurance10Bonus'
p541
I159436
sS'fActionPointsHeal'
p542
I215074
sS'fVATSMeleeWarpDistanceMult'
p543
I450005
sS'fDamagePowerAttackSideBonus'
p544
I284494
sS'fActionPointsToggleWeaponDrawn'
p545
I215080
sS'sHairColor9'
p546
I756380
sS'sHairColor8'
p547
I756379
sS'fFurnitureMarker23DeltaY'
p548
I118681
sS'fFurnitureMarker23DeltaX'
p549
I118680
sS'fFurnitureMarker23DeltaZ'
p550
I118683
sS'sHairColor3'
p551
I756370
sS'sHairColor2'
p552
I756376
sS'sHairColor1'
p553
I756381
sS'sHairColor0'
p554
I756369
sS'sHairColor7'
p555
I756371
sS'iHackingInputRate'
p556
I15803221
sS'sHairColor5'
p557
I756383
sS'sHairColor4'
p558
I756377
sS'fProjectileInventoryGrenadeFreakoutTime'
p559
I262660
sS'fActionPointsSustainedFireMult'
p560
I215078
sS'iLevItemLevelDifferenceMax'
p561
I15803236
sS'fExplosionWaterRadiusRatio'
p562
I423269
sS'fMoveBaseSpeed'
p563
I84881
sS'fVanityModeWheelMin'
p564
I119804
sS'iRemoveExcessDeadComplexCount'
p565
I15803233
ss.