(dp1
S'GMST'
p2
(dp3
S'fAIInteriorSpectatorDistance'
p4
I15803272
sS'fWortcraftChanceLuckDenom'
p5
I786858
sS'iAIDefaultAcrobaticDodgeChance'
p6
I15804033
sS'iArmorDamageCuirassChance'
p7
I15804059
sS'fRumblePainTime'
p8
I15803886
sS'fMoveWeightMax'
p9
I91540
sS'fBuoyancyGrass'
p10
I15803433
sS'iSDRsDetMaxAdjHealth'
p11
I15804203
sS'iSkillJourneymanMin'
p12
I15804236
sS'fArrowBounceRotateSpeed'
p13
I15803331
sS'fTorchEvaluationTimer'
p14
I15803984
sS'fFurnitureMarker05DeltaY'
p15
I15803546
sS'fFurnitureMarker05DeltaX'
p16
I15803545
sS'fFurnitureMarker05DeltaZ'
p17
I15803547
sS'iClassBattlemage'
p18
I15804077
sS'iSDRsDetectionPackage'
p19
I15804197
sS'iAIDefaultRushingAttackPercentChance'
p20
I15804048
sS'fJumpMoveBase'
p21
I15803610
sS'fSneakBootWeightMult'
p22
I246134
sS'fPersuasionCurve'
p23
I452267
sS'fRoadPointReachDistance'
p24
I15803878
sS'fSneakTargetInCombatBonus'
p25
I293257
sS'sAnimationCanNotEquipWeapon'
p26
I325211
sS'sNoMortor'
p27
I229003
sS'fRepairSkillBreakMult'
p28
I15803876
sS'IAllyHitAllowed'
p29
I15803418
sS'fAIMaxSmileDistance'
p30
I149100
sS'sEnduranceDescription'
p31
I377927
sS'fAIDodgeWalkChance'
p32
I15803257
sS'fAIDefaultAttackDuringBlockMult'
p33
I15803217
sS'fAiAquireKillBase'
p34
I15803316
sS'fKnockdownChance'
p35
I163740
sS'fAIDefaultDodgeFatigueMult'
p36
I15803228
sS'fActorAnimZAdjust'
p37
I15803309
sS'fTreeSizeConversion'
p38
I15803997
sS'iCurrentTargetBonus'
p39
I15804101
sS'sLevelUp20'
p40
I124577
sS'fMagicTelekinesisMaxForce'
p41
I15803701
sS'fAIDefaultAttackDuringUnconsciousBonus'
p42
I15803218
sS'fFurnitureMarker01DeltaY'
p43
I170210
sS'fFurnitureMarker01DeltaX'
p44
I170213
sS'fFurnitureMarker01DeltaZ'
p45
I170208
sS'iShockBranchSegmentsPerBolt'
p46
I15804229
sS'fSneakSoundsMult'
p47
I15803956
sS'iActorLuckSkillBase'
p48
I15804027
sS'fPersBoastAggr'
p49
I15803789
sS'fPotionT1AleDurMult'
p50
I20904
sS'fAIDodgeVerticalRangedAttackMult'
p51
I15803256
sS'fDetectionTimerSetting'
p52
I15803494
sS'fFurnitureMarker18DeltaZ'
p53
I15803583
sS'fFurnitureMarker18DeltaY'
p54
I15803582
sS'fFurnitureMarker18DeltaX'
p55
I15803581
sS'fJumpFallTimeMin'
p56
I15803607
sS'iMagicMaxPotionsNovice'
p57
I52181
sS'fBarterDispositionMod'
p58
I15803351
sS'fLockPickAutoDifficulty'
p59
I38824
sS'iMerchantRespawnDay1'
p60
I15804148
sS'fFriendHitTimer'
p61
I15803544
sS'iRegionGenClusterAttempts'
p62
I15804179
sS'iLevelUp04Mult'
p63
I15804128
sS'iSkillApprenticeMin'
p64
I15804234
sS'fWortcraftStrCostDenom'
p65
I15804022
sS'fVanityModeAutoYSpeed'
p66
I15804004
sS'fSneakLostMin'
p67
I15803953
sS'fSplashSoundHeavy'
p68
I15803966
sS'iWortcraftMaxEffectsMaster'
p69
I15804244
sS'fSDRsLOSmpMult'
p70
I15803891
sS'fLockPickQualityBase'
p71
I15803627
sS'fPCTurnAnimDeltaThreshold'
p72
I15803759
sS'fMoveCreatureWalkMax'
p73
I6112
sS'fCombatSpeakHitChance'
p74
I561150
sS'fDamageWeaponConditionMult'
p75
I816664
sS'fWeatherCloudSpeedMax'
p76
I15804015
sS'fFatigueRunMult'
p77
I160986
sS'fPathAvoidanceCreatureIntLimit'
p78
I212591
sS'iLevelUp01Mult'
p79
I15804125
sS'iClassPriest'
p80
I15804086
sS'fAIDefaultOptimalRangeMult'
p81
I15803244
sS'iCrimeGoldTrespass'
p82
I15803410
sS'fSunAlphaTransTime'
p83
I840681
sS'fDamageSneakAttackMult'
p84
I15803482
sS'iClassBarbarian'
p85
I15804075
sS'fTargetSearchRadius'
p86
I15803983
sS'iRemoveExcessDeadComplexTotalActorCount'
p87
I15803404
sS'fArmorWeightLightMaxMod'
p88
I15803327
sS'iActorTurnDegree'
p89
I15804028
sS'iSDRsPerkSneakJourneyman'
p90
I15804213
sS'fKnockbackDamageMult'
p91
I15803615
sS'fExpressionChangePerSec'
p92
I15803526
sS'sReturnToMainMenu'
p93
I817497
sS'fSneakBootWeightBase'
p94
I246133
sS'fSneakExteriorDistanceMult'
p95
I15803952
sS'fSplashSoundLight'
p96
I15803967
sS'sDropEquippedItemWarning'
p97
I402656
sS'fMagicDefaultCEEnchantFactor'
p98
I15803657
sS'fMagicSunDamageSunHiddenScale'
p99
I15803694
sS'sOverEncumbered'
p100
I1596976
sS'fFatigueCastBase'
p101
I425419
sS'fAISocialchanceForConversation'
p102
I239862
sS'fPathNPCWadingPenalty'
p103
I15803743
sS'fRegionGenTexGenMatch'
p104
I163322
sS'fTrackFudgeZ'
p105
I15803991
sS'sMajorSkills'
p106
I841113
sS'fInfamyBountyMod'
p107
I443979
sS'fPersAdmireResp'
p108
I15803786
sS'iAINumberActorsComplexScene'
p109
I15803398
sS'iClassRogue'
p110
I15804087
sS'fDispActorPerMult'
p111
I165798
sS'iArmorDamageBootsChance'
p112
I15804058
sS'fAIDefaultBuffStandoffDistance'
p113
I15803221
sS'fSunReduceGlareSpeed'
p114
I803458
sS'fSkillUseMajorMult'
p115
I15803949
sS'fLeafRustleAmountSwayInfluence'
p116
I85687
sS'fMoveSneakMult'
p117
I91539
sS'fMagicTelekinesisObjectDamping'
p118
I15803705
sS'fSDRsSoundUnderWaterMult'
p119
I15803919
sS'iSDRsDbgPlayerMovingLight'
p120
I15804194
sS'fFirstPersonCameraMult'
p121
I177022
sS'fBlockScoreNoShieldMult'
p122
I15803364
sS'fMasserSpeed'
p123
I15803717
sS'iAICombatRestoreHealthPercentage'
p124
I15804031
sS'iHighResponsibility'
p125
I15804123
sS'fFatigueCastMult'
p126
I15803531
sS'fBuoyancyOrganic'
p127
I15803437
sS'fLeafRockSpeedSwayInfluence'
p128
I85119
sS'sDerivedAttributeDescMagicka'
p129
I308955
sS'iMagicLightMaxCount'
p130
I15804142
sS'iSDRsHeadlessCantSee'
p131
I15804206
sS'fBribeCurve'
p132
I648787
sS'fSubmergedMaxSpeed'
p133
I15803977
sS'fAITrespassWarningTimer'
p134
I22146
sS'fRechargeGoldMult'
p135
I840735
sS'fSDRsSkillNoLOStorchMult'
p136
I15803897
sS'fAIDefaultAttackSkillBase'
p137
I15803220
sS'fArrowBowTimerMult'
p138
I15803333
sS'iArmorWeightHelmet'
p139
I177020
sS'fAIDefaultHoldMinTime'
p140
I15803240
sS'fDaytimeColorExtension'
p141
I85691
sS'fDefaultNoticeTextDisplayTime'
p142
I15803373
sS'iNumberGuardsCrimeResponse'
p143
I15804151
sS'fSDRsSoundMultEquip'
p144
I15803906
sS'iCombatCastDrainMinimumValue'
p145
I15804095
sS'fClothingArmorBase'
p146
I15803445
sS'iClassMonk'
p147
I15804083
sS'sCanNotEquipQuestArrows'
p148
I18504
sS'fLockLevelBase'
p149
I15803622
sS'sLuckDescription'
p150
I377929
sS'fMagicLevelMagnitudeMult'
p151
I15803673
sS'fPathPointStartCheckDistance'
p152
I15803749
sS'iAIDefaultMeleeAlertAllowed'
p153
I15804039
sS'sQuickSaving'
p154
I15803423
sS'fPersBoastWillp'
p155
I15803796
sS'fLockTrapGoOffMult'
p156
I15803632
sS'fPersBullyAggr'
p157
I15803797
sS'fDispTargetPerMult'
p158
I165797
sS'fClothingArmorScale'
p159
I15803446
sS'sDerivedAttributeDescEncumbrance'
p160
I308952
sS'fPickPocketActorSkillBase'
p161
I606278
sS'iPerkBlockDisarmChance'
p162
I15804153
sS'iClassThief'
p163
I15804091
sS'fFurnitureMarker10HeadingDelta'
p164
I15803568
sS'fSDRsSoundSkillEffectivenessHeavy'
p165
I15803912
sS'fMagicEnchantmentDrainBase'
p166
I15803664
sS'fBarterSellMult'
p167
I15803356
sS'fLockPickBreakBase'
p168
I15803625
sS'fEnchantmentGoldMult'
p169
I249961
sS'fAIAcquireObjectDistance'
p170
I15803206
sS'iLevelUp05Mult'
p171
I15804129
sS'fMoveSwimRunBase'
p172
I15803727
sS'fArrowSpeedMult'
p173
I15803343
sS'fPickPocketTargetSkillMult'
p174
I43665
sS'fAIMagicSpellMult'
p175
I15803273
sS'fSneakBaseValue'
p176
I314934
sS'iArmorWeightGauntlets'
p177
I15804066
sS'fAIDefaultAttackDuringRecoilStaggerBonus'
p178
I323876
sS'iArmorWeightCuirass'
p179
I15804065
sS'sAddItemtoSpellList'
p180
I34505
sS'fPickNumBase'
p181
I15803835
sS'iInventoryAskQuantityAt'
p182
I15803408
sS'fCombatRelativeDamageMod'
p183
I15803463
sS'sNoSleepCombat'
p184
I442733
sS'fRegionGenTexGenNotMatch'
p185
I163323
sS'fMagicTelekinesisThrow'
p186
I15803708
sS'fPickPocketTargetSkillBase'
p187
I15803839
sS'fMarksmanFatigueBurnPerSecond'
p188
I15803715
sS'iAllowRepairDuringCombat'
p189
I15803395
sS'iClassCrusader'
p190
I15804079
sS'fCheckPositionFallDistance'
p191
I15803444
sS'fMagicExplosionIncorporealMult'
p192
I15803667
sS'fAIDefaultDodgeForwardWhileAttackingMult'
p193
I15803232
sS'fAIFaceTargetAnimationAngle'
p194
I15803264
sS'iPersuasionDemandRefuse'
p195
I15804168
sS'fChase3rdPersonVanityXYMult'
p196
I15803381
sS'sBloodTextureExtra2'
p197
I15803414
sS'sBloodTextureExtra1'
p198
I15803413
sS'sCanNotEquipRepairHammer'
p199
I442723
sS'fMagicSpellLevelApprenticeMin'
p200
I394079
sS'fFleeDistanceInterior'
p201
I15803542
sS'fAIDefaultDodgeForwardNotAttackingMult'
p202
I15803231
sS'fAIMoveDistanceToRecalcFollowPath'
p203
I15803281
sS'sNoSleepHostilActorsNear'
p204
I442734
sS'fDistanceProjectileExplosionDetection'
p205
I48613
sS'fCombatStepAdvanceDistance'
p206
I15803467
sS'fArrowFOVTimeChange'
p207
I15803334
sS'fPersJokeConf'
p208
I15803806
sS'fFurnitureMarker14DeltaZ'
p209
I170241
sS'fFurnitureMarker14DeltaY'
p210
I170242
sS'fFurnitureMarker14DeltaX'
p211
I170246
sS'fTrackMaxZ'
p212
I15803993
sS'fMagickaReturnBase'
p213
I228129
sS'fDispInfamyMax'
p214
I15803503
sS'sNoSoul'
p215
I402660
sS'fPickPocketMaxChance'
p216
I43666
sS'sDiscoveredText'
p217
I442728
sS'fVanityModeWheelMult'
p218
I15803387
sS'fBlockSkillMult'
p219
I15803366
sS'fSecundaZOffset'
p220
I15803925
sS'fAIPowerAttackFatigueMult'
p221
I15803284
sS'sTravelQuestion'
p222
I442739
sS'iSDRsDetLifeLOSBumpAmount'
p223
I15804200
sS'iLevCreaLevelDifferenceMax'
p224
I21173
sS'iClassWarrior'
p225
I15804092
sS'fTrackXY'
p226
I15803996
sS'fAIConversationExploreTime'
p227
I15803215
sS'iSDRsLightingExpPercent'
p228
I15804212
sS'sFloraSuccessMessage'
p229
I15803422
sS'fPersuasionAccuracyMaxSelect'
p230
I15803814
sS'fFightAggrMult'
p231
I15803533
sS'fDamagePowerAttackForwardBonus'
p232
I21082
sS'fAIBestHeadTrackDistance'
p233
I15803208
sS'sAttributeDescLuck'
p234
I325206
sS'sHairColor15'
p235
I840672
sS'sHairColor14'
p236
I840671
sS'sHairColor13'
p237
I840670
sS'sHairColor12'
p238
I840669
sS'sHairColor11'
p239
I840668
sS'sHairColor10'
p240
I840667
sS'fAIDefaultBlockSkillMult'
p241
I14529
sS'fSDRsDetTargOnHorseMult'
p242
I15803890
sS'fMagicSpellLevelMasterMin'
p243
I394082
sS'fLowActorSpeedBoost'
p244
I15803633
sS'fMagicSpellLevelCostMult'
p245
I15803684
sS'fFurnitureMarker20DeltaZ'
p246
I15803591
sS'fFurnitureMarker20DeltaX'
p247
I15803589
sS'fFurnitureMarker20DeltaY'
p248
I15803590
sS'fMagicDiseaseTransferBase'
p249
I15803659
sS'iMagnitudeLevelAffectsAll'
p250
I15804144
sS'fAINPCSpeechMult'
p251
I15803430
sS'fFurnitureMarker19DeltaZ'
p252
I15803587
sS'fFurnitureMarker19DeltaX'
p253
I15803585
sS'fFurnitureMarker19DeltaY'
p254
I15803586
sS'fArrowFOVZoom'
p255
I15803336
sS'fAIRangedWeaponMult'
p256
I15803291
sS'fPerkSneakAttackMeleeJourneymanMult'
p257
I15803778
sS'fCombatDistance'
p258
I15803454
sS'iPersuasionOuter'
p259
I15804173
sS'fAbsorbGlowColorR'
p260
I3918
sS'fAIExteriorSpectatorDistance'
p261
I15803263
sS'fAbsorbGlowColorB'
p262
I3920
sS'fAbsorbGlowColorG'
p263
I3919
sS'fArrowGravityMin'
p264
I15803339
sS'fDeathSoundMaxDistance'
p265
I15803487
sS'fSpeechDelay'
p266
I165799
sS'fTrackEyeXY'
p267
I15803988
sS'fMagicDefaultCEBarterFactor'
p268
I15803656
sS'iPerkLightArmorMasterMinSum'
p269
I15804157
sS'fPerkSneakAttackMarksmanMasterMult'
p270
I840693
sS'iSDRsVisionThresholdTwilight'
p271
I15804226
sS'fMagicCasterSkillCostBase'
p272
I443980
sS'fVanityModeForceDefault'
p273
I15804006
sS'iPerkAttackDisarmChance'
p274
I15804152
sS'iArmorDamageGauntletsChance'
p275
I15804060
sS'iAimingNumIterations'
p276
I15804053
sS'fPathMinimalUseDoorPenalty'
p277
I15803740
sS'fMagicSunDamageBaseDamage'
p278
I15803687
sS'fMagicExplosionPowerMin'
p279
I15803671
sS'iAlertAgressionMin'
p280
I15804056
sS'fSDRsSoundMultLight'
p281
I15803908
sS'fAIIdleWaitTime'
p282
I15803269
sS'fAIMeleeArmorMult'
p283
I15803277
sS'fPersuasionBaseValueMaxSelect'
p284
I15803818
sS'fBlockSkillBase'
p285
I15803365
sS'fTreeTrunkToFoliageMultiplier'
p286
I15803998
sS'fPersBullyStre'
p287
I15803803
sS'fMagicAreaScale'
p288
I15803636
sS'fAIExteriorSpectatorDetection'
p289
I15803262
sS'fFurnitureMarker12DeltaY'
p290
I170219
sS'fFurnitureMarker12DeltaX'
p291
I170220
sS'fFurnitureMarker12DeltaZ'
p292
I170218
sS'fDetectionActionTimer'
p293
I15803492
sS'fCombatForwardAttackChance'
p294
I15803456
sS'fLeafRustleTimeScale'
p295
I85121
sS'iNumberActorsAllowedToFollowPlayer'
p296
I15803394
sS'fPersAdmirePers'
p297
I15803785
sS'fDialogSpeachDelay'
p298
I98725
sS'fBarterHaggleMax'
p299
I15803355
sS'iHighDamp'
p300
I15804122
sS'iShockNumBolts'
p301
I15804231
sS'fSecundaAngleShadowEarlyFade'
p302
I50735
sS'fPersuasionShape'
p303
I15803832
sS'fPersAdmireAggr'
p304
I15803781
sS'fDeathForceForceMin'
p305
I15803486
sS'fKnockbackTime'
p306
I15803617
sS'fBuoyancyWater'
p307
I15803440
sS'fIdleChatterCommentTimer'
p308
I618495
sS'fWeatherTransMax'
p309
I299963
sS'iPCStartSpellSkillLevel'
p310
I822215
sS'sAgilityDescription'
p311
I325212
sS'fDetectionNightEyeBonus'
p312
I15803493
sS'sLevelDoneWarning'
p313
I442730
sS'fAISocialRadiusToTriggerConversationInterior'
p314
I15803292
sS'fShockBoltsLength'
p315
I15803929
sS'fPathPointWalkTime'
p316
I15803753
sS'fReEquipArmorTime'
p317
I15803867
sS'iSDRsDetMaxAdjFatigue'
p318
I15804202
sS'iAIYieldMaxHitCount'
p319
I15804055
sS'iAbsorbNumBolts'
p320
I15804024
sS'fPerkLightArmorMasterRatingMult'
p321
I15803774
sS'iAIDefaultPowerAttackForwardChance'
p322
I15804042
sS'fAIMaxWanderTime'
p323
I15803276
sS'fBarterHaggleBase'
p324
I15803352
sS'fPersuasionReactionHate'
p325
I840892
sS'fPotionGoldValueMult'
p326
I83600
sS'fCombatMonitorBuffsTimer'
p327
I15803461
sS'iAICombatMaxAllySummonCount'
p328
I15803397
sS'fPersuasionReactionLike'
p329
I15803830
sS'iHoursToRespawnCell'
p330
I15803380
sS'fSDRsSoundSkillEffectivenessLight'
p331
I15803913
sS'fSecundaSpeed'
p332
I463286
sS'sAddItemtoInventory'
p333
I442720
sS'iArmorWeightBoots'
p334
I15804064
sS'fActorWeaponDesirabilitySkillMult'
p335
I15803315
sS'fKnockbackDamageBase'
p336
I15803614
sS'fEnchantGrandLimit'
p337
I15803518
sS'fPickPocketAmountBase'
p338
I15803837
sS'fPersuasionMinInput'
p339
I15803826
sS'fPickPocketAmountMult'
p340
I606277
sS'fAIDefaultAttackDuringAttackMult'
p341
I15803216
sS'fSecundaAngleFadeEnd'
p342
I50733
sS'fRumbleHitBlockedTime'
p343
I15803882
sS'iShockDebug'
p344
I15804230
sS'sAnimationCanNotUnequip'
p345
I402655
sS'iAIDefaultRejectYield'
p346
I15804047
sS'fSneakUnseenMin'
p347
I15803958
sS'fFurnitureMarker16DeltaY'
p348
I15803574
sS'fFurnitureMarker16DeltaX'
p349
I15803573
sS'fFurnitureMarker16DeltaZ'
p350
I15803575
sS'fAttributeClassPrimaryBonus'
p351
I15803346
sS'iWortcraftMaxEffectsApprentice'
p352
I15804241
sS'fMagicBoltOptimalDistance'
p353
I15803645
sS'fMagicSunDamagePainInitialDelay'
p354
I15803689
sS'iSDRsVisionThresholdDay'
p355
I15804224
sS'fPersJokeAggr'
p356
I15803805
sS'iInventoryMenuIdleDelay'
p357
I15804124
sS'fAIDefaultDodgeNoAttackMult'
p358
I15803235
sS'fPathImpassableDoorPenalty'
p359
I15803738
sS'sHitParticleMetal'
p360
I254604
sS'fAICombatUnreachableTargetPriorityMult'
p361
I15803214
sS'fDamageStrengthBase'
p362
I20900
sS'fPickNumMult'
p363
I15803836
sS'fPersuasionMaxSelect'
p364
I15803824
sS'fFurnitureMarker10DeltaZ'
p365
I15803567
sS'fFurnitureMarker10DeltaY'
p366
I15803566
sS'fFurnitureMarker10DeltaX'
p367
I15803565
sS'fMagicCloudSpeedBase'
p368
I15803654
sS'fMagicEnchantmentChargeMult'
p369
I15803663
sS'fSDRsSoundSkillEffectivenessCloth'
p370
I15803911
sS'fVanityModeWheelMin'
p371
I15803388
sS'fWeaponClutterKnockMinClutterMass'
p372
I15804013
sS'fSkillUseMinorMult'
p373
I15803950
sS'fMagicExplosionAgilityMult'
p374
I1615880
sS'fPerkSneakAttackMarksmanExpertMult'
p375
I840695
sS'iAIDefaultPowerAttackLeftChance'
p376
I15804043
sS'fMagicAreaScaleMin'
p377
I15803638
sS'fMagicFatigueDrainBase'
p378
I439110
sS'fPickSpring4'
p379
I15803843
sS'fPickSpring5'
p380
I15803844
sS'fPickSpring2'
p381
I15803841
sS'fPickSpring3'
p382
I15803842
sS'fActorSwimBreathDamage'
p383
I15803312
sS'fPickSpring1'
p384
I15803840
sS'fSplashSoundMedium'
p385
I15803968
sS'iMapMarkerRevealDistance'
p386
I413589
sS'iMerchantRespawnDay2'
p387
I15804149
sS'fSearchPackageDistanceToTarget'
p388
I15803922
sS'fPerkAthleticsJourneymanFatigueMult'
p389
I15803763
sS'fObjectHitWeaponReach'
p390
I15803732
sS'fPersuasionMaxDisposition'
p391
I15803822
sS'fPathMustLockpickPenalty'
p392
I15803741
sS'fRegionGenTexPlacedNotMatch'
p393
I163325
sS'iPerkMarksmanKnockdownChance'
p394
I15804158
sS'fMagicFatigueDrainMult'
p395
I439109
sS'fDispActorInfamyBase'
p396
I15803500
sS'sMagicDescription'
p397
I425039
sS'fPathPointForceAngleSnapDistance'
p398
I15803745
sS'iHairColor08'
p399
I15804114
sS'iHairColor09'
p400
I15804115
sS'iHairColor02'
p401
I15804108
sS'iHairColor03'
p402
I15804109
sS'iHairColor00'
p403
I15804106
sS'iHairColor01'
p404
I15804107
sS'iHairColor06'
p405
I15804112
sS'iHairColor07'
p406
I15804113
sS'iHairColor04'
p407
I15804110
sS'iHairColor05'
p408
I15804111
sS'iCrimeGoldAttackMin'
p409
I805415
sS'sMonthHeartFire'
p410
I803424
sS'fSpellCastingDetectionMod'
p411
I49627
sS'fSDRsSoundWeapRunMult'
p412
I15803920
sS'fMagickaReturnMult'
p413
I228130
sS'fMagicSunDamagePainTimer'
p414
I15803690
sS'fBuoyancyGlass'
p415
I15803432
sS'fCombatDistanceMin'
p416
I15803455
sS'iCrimeGoldMinValue'
p417
I15804099
sS'fAIDefaultDodgeForwardMaxTime'
p418
I15803229
sS'fAIDefaultBlockDuringAttackMult'
p419
I14531
sS'fAIDefaultIdleMinTime'
p420
I15803242
sS'fDispTargetFactionRankBase'
p421
I165796
sS'iMagicMaxPotionsJourneyman'
p422
I52184
sS'fEnchantmentPointsMult'
p423
I15803522
sS'iCrimeGoldPickpocket'
p424
I15803409
sS'fCrimeSoundMult'
p425
I15803480
sS'fActorLuckSkillMult'
p426
I15803311
sS'sBloodTextureDefault'
p427
I15803412
sS'fBarterHaggleDispMult'
p428
I15803354
sS'fDetectionSneakLightMod'
p429
I43620
sS'iPersuasionAngleMin'
p430
I15804161
sS'iArmorBaseSkill'
p431
I15804057
sS'fRemoveExcessDeadTime'
p432
I15803406
sS'fMagicLightForwardOffset'
p433
I15803674
sS'sFavoredAttributes'
p434
I841114
sS'fBuoyancyStone'
p435
I15803439
sS'iArrowMaxRefCount'
p436
I15803375
sS'fSubSegmentVariance'
p437
I15803979
sS'fArrowFakeMass'
p438
I15803337
sS'fValueofItemForNoOwnership'
p439
I15804001
sS'fPersBullyPers'
p440
I15803801
sS'fPersuasionBaseValueMinDispostion'
p441
I15803819
sS'iAIDefaultPowerAttackNormalChance'
p442
I15804044
sS'fBuoyancyMultBody'
p443
I15803435
sS'fMagicSpellLevelExpertMin'
p444
I394081
sS'fPotionT1CalDurMult'
p445
I20906
sS'fWeatherFlashDuration'
p446
I52786
sS'fMagicCasterSkillCostMult'
p447
I443981
sS'iSoulLevelValueCommon'
p448
I32407
sS'fClothingBase'
p449
I15803447
sS'fDamageSkillMult'
p450
I20903
sS'fAbsorbBoltGrowWidth'
p451
I15803301
sS'fSkillUseFactor'
p452
I32332
sS'fHandHealthMax'
p453
I172234
sS'fFurnitureMarker11DeltaZ'
p454
I170227
sS'fFurnitureMarker11DeltaX'
p455
I170236
sS'fFurnitureMarker11DeltaY'
p456
I170228
sS'fMagicSpellLevelJourneymanMin'
p457
I394080
sS'iAIDefaultIgnoreAlliesInArea'
p458
I15804038
sS'fSkillUseExp'
p459
I20897
sS'fPersAdmireStre'
p460
I15803787
sS'sLevelUp11'
p461
I442731
sS'fAIRadiusToRunDetectionExterior'
p462
I15803288
sS'iLowResponsiblityLevel'
p463
I1005625
sS'iBarterDispositionPenalty'
p464
I15804068
sS'fMagicTelekinesisComplexMaxForce'
p465
I15803696
sS'fDispositionReduction'
p466
I15803504
sS'fCombatHitConeAngle'
p467
I165795
sS'fEnchantmentEffectPointsMult'
p468
I15803521
sS'iAIDefaultDoNotAcquire'
p469
I15804036
sS'iDispBountyMax'
p470
I15804102
sS'fMagicTrackingLimit'
p471
I15803709
sS'iSoulLevelValueGreater'
p472
I32409
sS'fAIFleeConfMult'
p473
I15803265
sS'fKnockbackForceMax'
p474
I15803616
sS'iClassNightblade'
p475
I15804084
sS'fDetectionCommentTimer'
p476
I38665
sS'fAIDefaultAttackSkillMult'
p477
I14530
sS'sNoWaitInCombat'
p478
I786859
sS'sPlayerLeavingBorderRegion'
p479
I442738
sS'fAIDefaultAttackHandBonus'
p480
I15803219
sS'fSunYExtreme'
p481
I15803981
sS'fAICombatSlopeDifference'
p482
I15803212
sS'fCharacterControllerMultipleStepSpeed'
p483
I15803442
sS'fExpressionStrengthAdd'
p484
I15803527
sS'fFatigueReturnMult'
p485
I161053
sS'fPersuasionBaseValueMinSelect'
p486
I15803820
sS'sLowSoul'
p487
I402658
sS'fPowerAttackFatiguePenalty'
p488
I172235
sS'fDeathForceDamageMax'
p489
I15803483
sS'iMaxArrowsInQuiver'
p490
I15804146
sS'fPotionT2AleDurMult'
p491
I20817
sS'fMagicArmorPenaltyMax'
p492
I15803639
sS'iPersuasionMiddle'
p493
I15804172
sS'fHandFatigueDamageBase'
p494
I376837
sS'fFurnitureMarker14HeadingDelta'
p495
I178150
sS'iSDRsShortRangeMinDistance'
p496
I15804216
sS'fAICombatTargetUnreachablePriorityMult'
p497
I15803213
sS'fSDRsSoundMultHeavy'
p498
I15803907
sS'fActorTeleportFadeSeconds'
p499
I228131
sS'iDistancetoAttackedTarget'
p500
I15804104
sS'sSpecialization'
p501
I841105
sS'fArrowBounceLinearSpeed'
p502
I15803330
sS'iHairColor15'
p503
I15804121
sS'iHairColor14'
p504
I15804120
sS'iHairColor11'
p505
I15804117
sS'iHairColor10'
p506
I15804116
sS'iHairColor13'
p507
I15804119
sS'iHairColor12'
p508
I15804118
sS'fSunXExtreme'
p509
I15803980
sS'fMoveMinFlySpeed'
p510
I15803724
sS'fSpeechCraftBase'
p511
I15803960
sS'fDebrisMinExtent'
p512
I15803489
sS'fAIDefaultAttackNoAttackMult'
p513
I15803428
sS'fFatigueBlockMult'
p514
I15803530
sS'iWortcraftMaxEffectsExpert'
p515
I15804242
sS'fAIDefaultPowerAttackFatigueBase'
p516
I15803245
sS'iSDRsCollisionBonus'
p517
I15804189
sS'fStatsHealthLevelMult'
p518
I15803972
sS'fAlchemyGoldMult'
p519
I15803322
sS'iPersuasionBribeScale'
p520
I15804165
sS'sLoadingArea'
p521
I15803425
sS'sNoFastTravelCombat'
p522
I827638
sS'iAIDefaultFleeDisabled'
p523
I15804037
sS'fPersJokeIntel'
p524
I15803808
sS'fBribeMult'
p525
I15803369
sS'sImpossibleLock'
p526
I228999
sS'iShockBranchNumBolts'
p527
I15804228
sS'fBarterSellBase'
p528
I9011
sS'iHorseTurnDegreesPerSecond'
p529
I15803376
sS'fVanityModeWheelDefault'
p530
I15804008
sS'fAIDefaultRushingAttackDistanceMult'
p531
I15803250
sS'fJumpHeightMin'
p532
I15803609
sS'iRegionGenClusterPasses'
p533
I15804180
sS'fMagicSunDamageScreenGlowRateUp'
p534
I15803693
sS'fProjectileCollisionImpulseScale'
p535
I15803857
sS'iLevelUp08Mult'
p536
I15804132
sS'fAIMaxHeadTrackDistance'
p537
I149101
sS'iSkillExpertMin'
p538
I15804235
sS'fDispTargetFameMult'
p539
I15803509
sS'fMagicSunDamageWaterScale'
p540
I15803695
sS'fProjectileKnockMinMass'
p541
I15803858
sS'fSDRsSoundTurningMult'
p542
I15803918
sS'fImpactShaderMinMagnitude'
p543
I15803600
sS'fWortcraftChanceIntDenom'
p544
I786857
sS'fMarksmanFatigueBurnPerShot'
p545
I15803716
sS'fMagicCloudLifeScale'
p546
I15803651
sS'iSDRsChamSightEffPerc'
p547
I15804185
sS'iBribeAmountMax'
p548
I15804070
sS'sHitParticleWood'
p549
I254603
sS'fAIDefaultHoldMaxTime'
p550
I15803239
sS'fAIEscortWaitDistanceExterior'
p551
I15803260
sS'sNoSleepInOwnedBed'
p552
I841112
sS'iAIDefaultAttackChance'
p553
I14527
sS'fMagicTelekinesisLiftPowerMult'
p554
I85089
sS'fBlinkDelayMax'
p555
I15803357
sS'fDamageToWeaponPercentage'
p556
I606590
sS'iLevelUp02Mult'
p557
I15804126
sS'sStrengthDescription'
p558
I377932
sS'fProjectileMaxDistance'
p559
I15803863
sS'iAIFleeMaxHitCount'
p560
I15804051
sS'iClassKnight'
p561
I15804081
sS'fArmorRatingConditionBase'
p562
I15803324
sS'fFurnitureMarker02DeltaZ'
p563
I177058
sS'fMagicTelekinesisSpringElasticity'
p564
I15803707
sS'fFurnitureMarker02DeltaY'
p565
I177057
sS'fPathPointZDistanceAllowance'
p566
I15803754
sS'fSunMinimumGlareScale'
p567
I840686
sS'fEssentialHealthPercentReGain'
p568
I15803525
sS'fMagicRangeTargetCostMult'
p569
I15803678
sS'fAIPowerAttackKnockdownBonus'
p570
I15803285
sS'fMagicCloudDurationMin'
p571
I15803649
sS'fSplashScale1'
p572
I15803963
sS'fSplashScale2'
p573
I15803964
sS'fSplashScale3'
p574
I15803965
sS'iAICombatRestoreFatiguePercentage'
p575
I15804030
sS'fMoveCharWalkMin'
p576
I66760
sS'fMagicCloudSpeedScale'
p577
I15803655
sS'iSecundaSize'
p578
I15804227
sS'fVanityModeAutoYDegrees'
p579
I15804003
sS'sMiscNumPlacesDiscovered'
p580
I840405
sS'fDispTargetBountyMult'
p581
I15803505
sS'fPotionT3CalMagMult'
p582
I15803854
sS'fPerkSneakAttackMeleeNoviceMult'
p583
I15803780
sS'fAIAwareofPlayerTimer'
p584
I15803207
sS'fFurnitureMarker07DeltaZ'
p585
I15803555
sS'fFurnitureMarker07DeltaY'
p586
I15803554
sS'fFurnitureMarker07DeltaX'
p587
I15803553
sS'sLockLevelNameImpossible'
p588
I20862
sS'fSDRsSoundWeapSwimMult'
p589
I15803921
sS'fPathInvalidMovementTypePenalty'
p590
I15803739
sS'fPersBoastStre'
p591
I15803795
sS'fAbsorbSegmentVariance'
p592
I15803307
sS'fPersBoastConf'
p593
I15803790
sS'fMagicTelekinesisMoveAccelerate'
p594
I15803702
sS'fAbsorbMoveSpeed'
p595
I15803305
sS'iSDRsChamTorchEffect'
p596
I15804188
sS'fStatsHealthStartMult'
p597
I1047169
sS'fRepairSkillBreakBase'
p598
I15803875
sS'fEnemyHealthBarTimer'
p599
I15803524
sS'fFatigueMult'
p600
I172237
sS'fHandReachMult'
p601
I836068
sS'fSplashSoundVelocityMult'
p602
I15803971
sS'fPotionT2RetDurMult'
p603
I15803853
sS'fAiAquireStealBase'
p604
I15803320
sS'fPickPocketMinChance'
p605
I15803838
sS'fAIFleeHealthMult'
p606
I165792
sS'iSoulLevelValueLesser'
p607
I32410
sS'iClassWitchhunter'
p608
I15804093
sS'fDemandMult'
p609
I15803491
sS'fTreeFarDistanceBase'
p610
I147029
sS'fDifficultyDefaultValue'
p611
I15803495
sS'iLockLevelMaxEasy'
p612
I15804137
sS'iSDRsDbgWeaponEquipSound'
p613
I15804195
sS'fShockCoreColorR'
p614
I15803941
sS'iLevelUp03Mult'
p615
I15804127
sS'fSDRsSkillCVmult'
p616
I15803894
sS'fShockCoreColorG'
p617
I15803940
sS'fShockCoreColorB'
p618
I15803939
sS'iPersuasionDemandScale'
p619
I15804169
sS'fAIEnergyLevelBase'
p620
I15803258
sS'fPersBullyResp'
p621
I15803802
sS'iShockSegmentsPerBolt'
p622
I15804232
sS'sOpenWithKey'
p623
I442737
sS'iAIDefaultPowerAttackBackwardChance'
p624
I15804040
sS'fPotionMortPestleMult'
p625
I15803848
sS'sLoadWhilePlaying'
p626
I442732
sS'fMoveSwimWalkAthleticsMult'
p627
I15803728
sS'fTorchLightLevelMorning'
p628
I50135
sS'fMagicBallMaximumDistance'
p629
I15803641
sS'fFatigueRunBase'
p630
I160985
sS'fFurnitureMarker08DeltaX'
p631
I15803557
sS'fFurnitureMarker08DeltaY'
p632
I15803558
sS'fFurnitureMarker08DeltaZ'
p633
I15803559
sS'iAllyHitAllowed'
p634
I15803419
sS'fAbsorbBoltSmallWidth'
p635
I15803302
sS'fAIGreetingTimer'
p636
I15803267
sS'sPersonalityDescription'
p637
I377930
sS'fCrimeAlarmRespMult'
p638
I805416
sS'fCreatureCalcCombat'
p639
I15803469
sS'fPathPointMaxAngleDeltaTurnSpeedScalar'
p640
I15803746
sS'fSecondsBetweenWindowUpdate'
p641
I15803924
sS'fPersuasionAccuracyMinSelect'
p642
I15803816
sS'fPickPocketActorSkillMult'
p643
I43667
sS'sAttributeDescPersonality'
p644
I325207
sS'fAiAquireKillMult'
p645
I15803317
sS'fFurnitureMarker04DeltaX'
p646
I120257
sS'fFurnitureMarker04DeltaY'
p647
I120258
sS'fFurnitureMarker04DeltaZ'
p648
I120259
sS'fMoveRunAthleticsMult'
p649
I15803725
sS'fSeenDataUpdateRadius'
p650
I15803926
sS'sFastTravelHorseatGate'
p651
I15803424
sS'fLockPickBreakMult'
p652
I15803626
sS'fFirstPersonScaleSeconds'
p653
I15803540
sS'fTrackEyeZ'
p654
I15803989
sS'sCanNotReadBood'
p655
I442725
sS'fAIDefaultDodgeDuringAttackMult'
p656
I15803226
sS'sCanNotTrainHigher'
p657
I442726
sS'fPersuasionBaseValueMaxDisposition'
p658
I15803817
sS'fMagicSunDamageScreenGlowMult'
p659
I15803691
sS'fAIDodgeFavorLeftRightMult'
p660
I15803255
sS'iSDRsSoundBaseMovementPenalty'
p661
I15804218
sS'fUpdateInterval'
p662
I15804000
sS'fPathAvoidanceTimeOut'
p663
I15803736
sS'fBlockMax'
p664
I15803363
sS'fAIDefaultSpeechMult'
p665
I15803251
sS'fPerkLightArmorNoviceDamageMult'
p666
I15803775
sS'iPersuasionDemandGold'
p667
I15804167
sS'fMagicExplosionClutterMult'
p668
I15803666
sS'fSDRsSoundMovementPenaltyMult'
p669
I15803900
sS'fPotionT1CalMagMult'
p670
I15803849
sS'fLockPickQualityMult'
p671
I15803628
sS'fHandDamageStrengthBase'
p672
I15803596
sS'fFurnitureMarker13HeadingDelta'
p673
I201642
sS'fMoveNoWeaponMult'
p674
I14525
sS'iMarksmanFatigueBurnPerSecondSkill'
p675
I15804145
sS'fBribeNPCLevelMult'
p676
I15803370
sS'fRepairBreakApprenticeMult'
p677
I15803874
sS'fAItalktoNPCtimer'
p678
I15803299
sS'sNoFastTravelScriptBlock'
p679
I402659
sS'fDispTargetPerBase'
p680
I15803511
sS'fArrowBounceBlockPercentage'
p681
I15803329
sS'fAItalktosameNPCtimer'
p682
I15803300
sS'iFriendHitAllowed'
p683
I15804105
sS'fRegionObjectDensityPower'
p684
I15803871
sS'fArmorRatingConditionMult'
p685
I15803325
sS'fRepairCostMult'
p686
I15803390
sS'iClassCharactergenClass'
p687
I15804078
sS'fSearchPackageTimer'
p688
I15803923
sS'sStealthDescription'
p689
I425038
sS'iLockLevelMaxVeryEasy'
p690
I15804139
sS'fFightDistanceBase'
p691
I15803536
sS'fMagicTrackingMultBolt'
p692
I15803712
sS'iActivatePickLength'
p693
I15804025
sS'fMagicResistTargetWillpowerBase'
p694
I15803681
sS'fPotionT1MagMult'
p695
I15803850
sS'fRumbleHitBlockedStrength'
p696
I15803881
sS'sBloodParticleDefault'
p697
I15803415
sS'fGrabPower'
p698
I15803593
sS'fPersuasionReactionLove'
p699
I15803831
sS'fFurnitureMarker09HeadingDelta'
p700
I15803564
sS'iClassAgent'
p701
I15804072
sS'fPathNonFishSwimmingPenalty'
p702
I15803742
sS'fMoveSwimWalkBase'
p703
I15803729
sS'fDamagePowerAttackSideBonus'
p704
I21081
sS'fMagicBoltDuration'
p705
I15803643
sS'fChameleonMaxRefraction'
p706
I15803378
sS'fMoveCreatureWalkMin'
p707
I2243
sS'sHairColor9'
p708
I840666
sS'sHairColor8'
p709
I840665
sS'sHairColor3'
p710
I840660
sS'sHairColor2'
p711
I840659
sS'sHairColor1'
p712
I840658
sS'sHairColor0'
p713
I840657
sS'sHairColor7'
p714
I840664
sS'sHairColor6'
p715
I840663
sS'fBuoyancySkin'
p716
I15803438
sS'sHairColor4'
p717
I840661
sS'fMagicTelekinesisComplexSpringDamping'
p718
I15803698
sS'fAIRangMagicSpellMult'
p719
I15803290
sS'iLevItemLevelDifferenceMax'
p720
I21174
sS'fPotionT3RetMagMult'
p721
I15803855
sS'iAIDefaultPowerAttackRightChance'
p722
I15804045
sS'fPerkJumpFatigueExpertMult'
p723
I15803771
sS'fPerkSneakAttackMarksmanJourneymanMult'
p724
I840694
sS'fAIDefaultSwitchToRangedDistance'
p725
I15803253
sS'iHorseTurnDegreesRampUpPerSecond'
p726
I15803377
sS'fActorSwimBreathBase'
p727
I1617874
sS'fDispActorPerBase'
p728
I15803502
sS'fPerkAthleticsApprenticeFatigueMult'
p729
I15803761
sS'fShaderShadowUpdateDistance'
p730
I15803927
sS'fCreatureCalcDamage'
p731
I15803470
sS'iCrimeGoldTresspass'
p732
I15803411
sS'fMagicExplosionIncorporealTime'
p733
I15803668
sS'iShockSubSegments'
p734
I15804233
sS'fHostileActorInteriorDistance'
p735
I15803400
sS'fHandDamageStrengthMult'
p736
I15803597
sS'fArrowFOVTimeStart'
p737
I15803335
sS'fSDRsSoundSneakEffectivenessHeavy'
p738
I15803915
sS'iLockLevelMaxVeryHard'
p739
I15804140
sS'fPathAvoidanceWaitTimeLimit'
p740
I15803737
sS'sCanNotEquipAlchemy'
p741
I442722
sS'fBarterDispBase'
p742
I15803350
sS'fMagicBallOptimalDistance'
p743
I15803642
sS'fFightFriendDispMult'
p744
I15803538
sS'iBoneLODDistMult'
p745
I15804069
sS'fDispTargetFactionMult'
p746
I15803507
sS'fAIPowerAttackFatigueBase'
p747
I15803283
sS'fJumpFallTimeMult'
p748
I454175
sS'fJumpMoveMult'
p749
I15803611
sS'fSDRsSkillNoLOSlightSpellMult'
p750
I15803896
sS'fEssentialDeathTime'
p751
I15803382
sS'fAIYieldMult'
p752
I15803298
sS'fMoveSwimRunAthleticsMult'
p753
I15803726
sS'sDerivedAttributeDescHealth'
p754
I308954
sS'fPersAdmireIntel'
p755
I15803784
sS'fShockBoltsRadiusStrength'
p756
I15803932
sS'fBlockAmountWeaponMult'
p757
I15803362
sS'fMagicBoltSegmentLength'
p758
I15803646
sS'iArmorDamageGreavesChance'
p759
I15804061
sS'fAIYieldBase'
p760
I165793
sS'sVarlaStoneMessage'
p761
I43502
sS'fDispTargetDiseaseBase'
p762
I15803506
sS'fMagicDefaultTouchDistance'
p763
I15803658
sS'fPersuasionMaxInput'
p764
I15803823
sS'fAiAquirePickMult'
p765
I15803319
sS'fHandDamageSkillBase'
p766
I15803594
sS'iSDRsShortRangeMaxDistance'
p767
I15804215
sS'sSuccessfulSneakAttackEnd'
p768
I840691
sS'fPersBoastPers'
p769
I15803793
sS'fShockBranchLifetime'
p770
I15803935
sS'fBarterBuyMult'
p771
I15803349
sS'fSubmergedLODDistance'
p772
I15803976
sS'fActorStrengthEncumbranceMult'
p773
I66900
sS'fBuoyancyCloth'
p774
I15803372
sS'fAIFleeConfBase'
p775
I165794
sS'fFightDistanceMult'
p776
I15803537
sS'fSDRsSoundMultBlunt'
p777
I15803903
sS'iAIDefaultYieldEnabled'
p778
I15804049
sS'fPersuasionMinDispostion'
p779
I15803825
sS'fAIDefaultDodgeLeftRightMinTime'
p780
I15803234
sS'fInventoryDropTimer'
p781
I15803601
sS'sVampireFeedQuestion'
p782
I34487
sS'fMagicTelekinesisMoveBase'
p783
I15803703
sS'fChameleonMinRefraction'
p784
I15803379
sS'fRumbleBlockTime'
p785
I15803880
sS'fPersBullyIntel'
p786
I15803800
sS'fAIPowerAttackNPCChance'
p787
I15803286
sS'fPickLevelBase'
p788
I15803833
sS'fStarsRotateZAxis'
p789
I840685
sS'sQuickLoading'
p790
I15803426
sS'fStarsRotateXAxis'
p791
I840682
sS'sNoLockPick'
p792
I229001
sS'fPCBaseHealthMult'
p793
I15803758
sS'fAIMaxHeadTrackDistanceFromPC'
p794
I15803275
sS'iAINPCRacePowerChance'
p795
I15804054
sS'fSubmergedMaxWaterDistance'
p796
I15803978
sS'fShockBoltsRadius'
p797
I15803931
sS'fRumbleStruckTime'
p798
I15803888
sS'fEnchantCommonLimit'
p799
I15803517
sS'fMagicCloudAreaMin'
p800
I15803648
sS'fMagicAreaBaseCostMult'
p801
I15803635
sS'fJumpFallSkillMult'
p802
I15803605
sS'fFurnitureMarker19HeadingDelta'
p803
I15803588
sS'fAIDefaultDodgeBackDuringAttackMult'
p804
I15803222
sS'fRumbleHitStrength'
p805
I15803883
sS'fSneakSoundLosMult'
p806
I314935
sS'fSneakSwimmingLightMult'
p807
I15803957
sS'fFatigueJumpMult'
p808
I454177
sS'fCrimeDispMurder'
p809
I15803474
sS'fFurnitureMarker17HeadingDelta'
p810
I15803580
sS'fAiAquirePickBase'
p811
I15803318
sS'iSDRsDbgWeapPenaltyDetails'
p812
I15804196
sS'fItemPointsMult'
p813
I15803602
sS'fCrimeDispAttack'
p814
I15803473
sS'fLeafRockAmountSwayInfluence'
p815
I85118
sS'fPerkAthleticsNoviceFatigueMult'
p816
I15803765
sS'fCrimeGoldSteal'
p817
I15803392
sS'fBuoyancyWood'
p818
I15803441
sS'fActorArmorDesirabilitySkillMult'
p819
I15803310
sS'fPotionT1RetDurMult'
p820
I20907
sS'fFatigueJumpBase'
p821
I454176
sS'fShockSegmentVariance'
p822
I15803946
sS'fMoveWeightMin'
p823
I15803730
sS'iSkillMasterMin'
p824
I15804237
sS'iLockLevelMaxAverage'
p825
I15804136
sS'fRegionGenTexPlacedMatch'
p826
I163324
sS'fEnchantPettyLimit'
p827
I15803523
sS'fRumblePainStrength'
p828
I15803885
sS'fFatigueBlockBase'
p829
I15803529
sS'iSDRsDetLifeFlatBump'
p830
I15804198
sS'fJumpDoubleMult'
p831
I454173
sS'fAbsorbBoltsRadius'
p832
I15803303
sS'fFurnitureMarker03DeltaZ'
p833
I120263
sS'fFurnitureMarker03DeltaY'
p834
I120262
sS'fFurnitureMarker03DeltaX'
p835
I120261
sS'sLevelUp4'
p836
I124574
sS'fMagicLightHeightOffset'
p837
I85108
sS'sLevelUp6'
p838
I124573
sS'fMagicDiseaseTransferMult'
p839
I803462
sS'fMagicResistActorSkillBase'
p840
I15803679
sS'sLevelDefault'
p841
I442729
sS'sAttributeDescWillpower'
p842
I325210
sS'fWeaponClutterKnockMult'
p843
I15804014
sS'fLeafRockTimeScale'
p844
I85120
sS'fPathAvoidanceObstacleCheckTimeLimit'
p845
I15803735
sS'fPersuasionReactionDislike'
p846
I840893
sS'sNoHammer'
p847
I229000
sS'fTrackMinZ'
p848
I15803994
sS'fAIDodgeDecisionBase'
p849
I15803254
sS'fPainDelay'
p850
I15803734
sS'fFightAbleToDetectTimer'
p851
I15803532
sS'fFurnitureMarker03HeadingDelta'
p852
I120264
sS'fPersuasionAccuracyMaxDisposition'
p853
I15803813
sS'fAIMeleeHandMult'
p854
I15803278
sS'fKnockbackAgilMult'
p855
I15803613
sS'fFurnitureMarker15HeadingDelta'
p856
I15803572
sS'iClassPilgrim'
p857
I15804085
sS'fShockBoltGrowWidth'
p858
I15803928
sS'fFatigueAttackWeaponBase'
p859
I161051
sS'fMagicTelekinesisSpringDamping'
p860
I15803706
sS'fSDRsSoundSneakEffectivenessLight'
p861
I15803916
sS'iSpeakSoundLipDistance'
p862
I15804239
sS'fCombatSpeakAttackChance'
p863
I149347
sS'fAIDefaultDodgeFatigueBase'
p864
I15803227
sS'fTrackDeadZoneXY'
p865
I15803986
sS'iSDRsChamSoundEffPerc'
p866
I15804187
sS'fAIDefaultDodgeBackwardMinTime'
p867
I15803225
sS'fCombatCollectAlliesTimer'
p868
I15803452
sS'iSDRsDialoguePenalty'
p869
I15804204
sS'iDeathDropWeaponChance'
p870
I261440
sS'fShockBoltSmallWidth'
p871
I15803930
sS'fMagicAbsorbDistanceReachMult'
p872
I15803634
sS'fPathPointTurningSpeed'
p873
I15803752
sS'fDamageStrengthMult'
p874
I20901
sS'fFightDispMult'
p875
I15803535
sS'iArrowInventoryChance'
p876
I15803374
sS'fCombatRangedStandoffTimer'
p877
I15803462
sS'fPersBoastIntel'
p878
I15803792
sS'fShockBranchSegmentVariance'
p879
I15803937
sS'fFurnitureMarker05HeadingDelta'
p880
I15803548
sS'fPersuasionAccuracyMinDispostion'
p881
I15803815
sS'fMagicUnitsPerFoot'
p882
I15803714
sS'fMagicTrackingLimitComplex'
p883
I15803710
sS'fSDRsSoundSwimmingMult'
p884
I15803917
sS'fCombatLineOfSightTimer'
p885
I15803458
sS'fTrackDeadZoneZ'
p886
I15803987
sS'fDispActorInfamyMult'
p887
I15803501
sS'fAbsorbBoltsRadiusStrength'
p888
I15803304
sS'fPathWaterExitPenalty'
p889
I15803757
sS'fAISocialRadiusToTriggerConversation'
p890
I50881
sS'sAttributeDescEndurance'
p891
I325204
sS'fBarterBuyBase'
p892
I15803348
sS'fAIDefaultDodgeSpeedMult'
p893
I15803237
sS'fSDRsSleepSoundMult'
p894
I15803899
sS'fCombatSoundWeaponPct'
p895
I177016
sS'fFurnitureMarker09DeltaY'
p896
I15803562
sS'fFurnitureMarker09DeltaX'
p897
I15803561
sS'fFurnitureMarker09DeltaZ'
p898
I15803563
sS'fSplashSoundOutMult'
p899
I15803969
sS'sSoulGemTooSmall'
p900
I809167
sS'iCrimeGoldJailBreak'
p901
I43520
sS'fSDRsSkillCrimeGoldMult'
p902
I15803893
sS'fDemandBase'
p903
I15803490
sS'fKnockbackAgilBase'
p904
I15803612
sS'fMagicEnchantmentDrainMult'
p905
I15803665
sS'fFurnitureMarker01HeadingDelta'
p906
I178123
sS'iActorKeepTurnDegree'
p907
I15804026
sS'iPersuasionBribeGold'
p908
I15804163
sS'fAiAquireStealMult'
p909
I15803321
sS'fFurnitureMarker07HeadingDelta'
p910
I15803556
sS'fPersuasionBaseValueShape'
p911
I15803821
sS'fPersJokeEner'
p912
I15803807
sS'fJumpFallSkillBase'
p913
I15803604
sS'iAIDefaultBlockChance'
p914
I14528
sS'fMasserAngleFadeEnd'
p915
I50738
sS'fCrimeDispTresspass'
p916
I15803478
sS'fShockGlowColorR'
p917
I15803944
sS'fAIFleeSuccessTimeout'
p918
I15803266
sS'iLevelUp07Mult'
p919
I15804131
sS'fMaximumWind'
p920
I15803719
sS'fShockGlowColorG'
p921
I15803943
sS'fShockGlowColorB'
p922
I15803942
sS'fMagicNightEyeAmbient'
p923
I15803675
sS'iClassAssassin'
p924
I15804074
sS'fWortStrMult'
p925
I15804023
sS'fRegionGenNoiseFactor'
p926
I15803869
sS'sNoWaitHostilActorsNear'
p927
I442735
sS'fMagicSunDamageScreenGlowRateDown'
p928
I15803692
sS'iPlayerCustomClass'
p929
I15804177
sS'fFatigueBlockSkillMult'
p930
I163742
sS'fAIInteriorSpectatorDetection'
p931
I15803271
sS'iDispFameMax'
p932
I15804103
sS'fPickLevelMult'
p933
I15803834
sS'fPersBullyConf'
p934
I15803798
sS'fMagicProjectileMaxDistance'
p935
I15803677
sS'fDistanceExteriorReactCombat'
p936
I15803514
sS'fBowHoldTimer'
p937
I15803367
sS'fMagicSprayOptimalDistance'
p938
I15803686
sS'fFurnitureMarker04HeadingDelta'
p939
I120260
sS'fFurnitureMarker06HeadingDelta'
p940
I15803552
sS'fPersBoastEner'
p941
I15803791
sS'fSDRsSoundMultCloth'
p942
I15803905
sS'fAIDefaultSwitchToMeleeDistance'
p943
I15803252
sS'fSDRsSoundMultUnequip'
p944
I15803910
sS'iMagicMaxPotionsExpert'
p945
I52183
sS'fObjectWeightPickupDetectionMult'
p946
I15803733
sS'iPerkHeavyArmorSinkSum'
p947
I15804156
sS'fRandomDoorDistance'
p948
I15803866
sS'fAIDefaultRangedStandoffDistance'
p949
I15803249
sS'fKnockdownAgilMult'
p950
I15803619
sS'sFloraFailureMessage'
p951
I15803421
sS'iAIDefaultDodgeChance'
p952
I15804034
sS'fShockCastVOffset'
p953
I15803938
sS'fDistanceInteriorReactCombat'
p954
I15803515
sS'fFightAggrBase'
p955
I91541
sS'fJumpFallVelocityMin'
p956
I15803608
sS'fSneakLightMult'
p957
I653570
sS'fCombatBuffMaxTimer'
p958
I15803450
sS'iMediumResponsiblityLevel'
p959
I15804147
sS'fKnockdownAgilBase'
p960
I15803618
sS'fVanityModeWheelMax'
p961
I15803383
sS'sUnequipItemOnPlayer'
p962
I442740
sS'iPersuasionDemandDisposition'
p963
I15804166
sS'iLevelUp09Mult'
p964
I15804133
sS'fJumpFallTimeBase'
p965
I15803606
sS'iCollFreq'
p966
I15804094
sS'fPersAdmireWillp'
p967
I15803788
sS'fLockSkillMult'
p968
I15803630
sS'fRepairStrengthMult'
p969
I15803877
sS'iSDRsVisionThresholdNight'
p970
I15804225
sS'fProjectileKnockMultClutter'
p971
I15803860
sS'fPotionT3AleMagMult'
p972
I20806
sS'sNoWaitWhileAlarmSounding'
p973
I402662
sS'fAIDefaultDodgeSpeedBase'
p974
I15803236
sS'fVanityModeXMult'
p975
I15804009
sS'fMagicCloudSizeScale'
p976
I15803652
sS'fSneakSleepBonus'
p977
I32395
sS'fAIMagicTimer'
p978
I15803274
sS'fArrowWeakGravity'
p979
I15803344
sS'fMoveMaxFlySpeed'
p980
I15803723
sS'fAIMeleeWeaponMult'
p981
I15803279
sS'fMoveRunMult'
p982
I66764
sS'sMonthRainsHand'
p983
I803425
sS'iSDRsSoundBumpLanding'
p984
I15804219
sS'fRumbleBlockStrength'
p985
I15803879
sS'fAutoDoorActivateDistance'
p986
I427429
sS'sKeyLocked'
p987
I402657
sS'iSneakSkillUseDistance'
p988
I15804238
sS'fNoticeTextTimePerCharacter'
p989
I15803731
sS'fWortcraftStrChanceDenom'
p990
I15804021
sS'fBarterHaggleCurve'
p991
I15803353
sS'fSneakSeenMin'
p992
I15803955
sS'fAISocialchanceForConversationInterior'
p993
I15803293
sS'fWortcraftFatigueMag'
p994
I15804020
sS'fLockPickAutoOffset'
p995
I15803624
sS'iArmorWeightShield'
p996
I177019
sS'fCrimeDispPickpocket'
p997
I15803476
sS'fBuoyancyDirt'
p998
I15803431
sS'iAllowAlchemyDuringCombat'
p999
I15803393
sS'fCombatSoundFleshPct'
p1000
I177017
sS'fMagicFogOptimalDistance'
p1001
I827330
sS'iPerkHeavyArmorJumpSum'
p1002
I15804155
sS'fMagicDispelMagnitudeMult'
p1003
I15803660
sS'fFurnitureMarker06DeltaZ'
p1004
I15803551
sS'fFurnitureMarker06DeltaX'
p1005
I15803549
sS'fFurnitureMarker06DeltaY'
p1006
I15803550
sS'fDamagePowerAttackBonus'
p1007
I172228
sS'fSubmergedAngularDamping'
p1008
I15803973
sS'sCombatDescription'
p1009
I425037
sS'fAIDefaultBlockSkillBase'
p1010
I15803429
sS'sAttributeDescIntelligence'
p1011
I325205
sS'fArrowBowTimerBase'
p1012
I15803332
sS'iRemoveExcessDeadCount'
p1013
I15803402
sS'sNoLockPickKey'
p1014
I229002
sS'fPerkHeavyArmorMasterSpeedMult'
p1015
I15803768
sS'fAICombatNoTargetLOSPriorityMult'
p1016
I15803211
sS'iCrimeGoldAttack'
p1017
I15804098
sS'fCheckDeadBodyTimer'
p1018
I15803443
sS'fImpactShaderMaxMagnitude'
p1019
I14852
sS'fMagicTrackingMultFog'
p1020
I15803713
sS'fTorchLightLevelInterior'
p1021
I15803985
sS'fArmorRatingMax'
p1022
I15803326
sS'iPersuasionAngleMax'
p1023
I15804160
sS'fMagicBoltMaximumDistance'
p1024
I15803644
sS'fCombatMinEngageDistance'
p1025
I15803460
sS'fQuickKeyDownTimer'
p1026
I15803864
sS'iLowDamp'
p1027
I15804141
sS'fTrainingCostMult'
p1028
I1151956
sS'fAIDefaultGroupStandoffDistance'
p1029
I15803238
sS'iQuickKeyIgnoreMillis'
p1030
I15804178
sS'iArmorDamageHelmChance'
p1031
I15804062
sS'iSoulLevelValueGrand'
p1032
I32408
sS'fDispTargetFactionRankMult'
p1033
I15803508
sS'fPersuasionReactionHatePerk'
p1034
I15803829
sS'fPersAdmireEner'
p1035
I15803783
sS'fDyingTimer'
p1036
I840490
sS'fBribeCostCurve'
p1037
I15803368
sS'fDispTargetInfamyMult'
p1038
I15803510
sS'fStarsRotateDays'
p1039
I840684
sS'iSDRsDbgDLNPC2NPC'
p1040
I15804190
sS'fActorWeaponDesirabilityDamageMult'
p1041
I15803314
sS'iNumberActorsGoThroughLoadDoorInCombat'
p1042
I15804150
sS'fFirstPersonHandFollowMult'
p1043
I15803539
sS'fAIYieldDurationBase'
p1044
I15803296
sS'fShockSubSegmentVariance'
p1045
I15803947
sS'sEssentialCharacterDown'
p1046
I85306
sS'iMapMarkerVisibleDistance'
p1047
I413590
sS'fFurnitureMarker08HeadingDelta'
p1048
I15803560
sS'iPerkExtraBarterGoldMaster'
p1049
I20863
sS'fMagicLightRadiusBase'
p1050
I85109
sS'iSDRsInvisSoundEffPerc'
p1051
I15804209
sS'fFurnitureMarker02DeltaX'
p1052
I177056
sS'fPathPreferredPointBonus'
p1053
I15803755
sS'fCombatSpeakTauntChance'
p1054
I15803465
sS'fActorSwimBreathMult'
p1055
I1617875
sS'fPotionT1RetMagMult'
p1056
I15803851
sS'iSDRsDbgDLNPC2Player'
p1057
I15804191
sS'fTorchLightLevelNight'
p1058
I50134
sS'fFurnitureMarker02HeadingDelta'
p1059
I185116
sS'sAttributeDescStrength'
p1060
I325209
sS'iPerkHandToHandBlockRecoilChance'
p1061
I15804154
sS'iClassSorcerer'
p1062
I15804089
sS'fAIPowerAttackCreatureChance'
p1063
I15803282
sS'iPersuasionBribeCrime'
p1064
I15804162
sS'fPersJokeWillp'
p1065
I15803812
sS'fPerkHeavyArmorNoviceDamageMult'
p1066
I15803769
sS'fSDRsSoundMult2Handed'
p1067
I15803901
sS'fLowLevelNPCBaseHealthMult'
p1068
I817427
sS'fEnchantGreaterLimit'
p1069
I15803519
sS'fCombatDamageScale'
p1070
I15803453
sS'fPathPointTurnDistanceInterior'
p1071
I15803751
sS'iWortcraftMaxEffectsJourneyman'
p1072
I15804243
sS'iRemoveExcessDeadComplexCount'
p1073
I15803405
sS'iLowLevelNPCMaxLevel'
p1074
I817426
sS'fDamageWeaponMult'
p1075
I172229
sS'fPerkSneakAttackMeleeExpertMult'
p1076
I15803777
sS'fDamageWeaponConditionBase'
p1077
I816663
sS'fMasserAngleShadowEarlyFade'
p1078
I50736
sS'sContinueText'
p1079
I442727
sS'fChase3rdPersonXYMult'
p1080
I816668
sS'fRumbleStruckStrength'
p1081
I15803887
sS'fFurnitureMarker20HeadingDelta'
p1082
I15803592
sS'fPickUpWeaponDelay'
p1083
I15803845
sS'fSunZExtreme'
p1084
I15803982
sS'fFleeIsSafeTimer'
p1085
I15803543
sS'fRegionGenTreeSinkPower'
p1086
I15803870
sS'fWortalchmult'
p1087
I15804019
sS'fWeaponClutterKnockBipedScale'
p1088
I15804011
sS'fAIDefaultPowerAttackRecoilStaggerBonus'
p1089
I15803247
sS'fLeafRustleSpeedSwayInfluence'
p1090
I85122
sS'fSneakRunningMult'
p1091
I821675
sS'sNoSoulGem'
p1092
I229004
sS'fAbsorbTortuosityVariance'
p1093
I15803308
sS'fFadeToBlackFadeSeconds'
p1094
I15803528
sS'fWeatherTransAccel'
p1095
I15804017
sS'fArrowWeakSpeed'
p1096
I15803345
sS'fPerkSneakAttackMeleeApprenticeMult'
p1097
I15803776
sS'fPlayerTeleportFadeSeconds'
p1098
I15803847
sS'fFatigueBase'
p1099
I172236
sS'fBlinkDownTime'
p1100
I15803359
sS'iClassScout'
p1101
I15804088
sS'fCombatSoundArmorPct'
p1102
I177018
sS'iSDRsLightingBumpTorch'
p1103
I15804211
sS'fHandFatigueDamageMult'
p1104
I376838
sS'fClothingJewelryBase'
p1105
I98627
sS'fRemoteCombatMissedAttack'
p1106
I15803872
sS'fEnchantLesserLimit'
p1107
I15803520
sS'fCombatRoundAmount'
p1108
I15803464
sS'fImpactShaderMaxDistance'
p1109
I15803599
sS'fWeaponClutterKnockMaxWeaponMass'
p1110
I15804012
sS'iMasserSize'
p1111
I50540
sS'fPersuasionMinPercentCircle'
p1112
I15803827
sS'fSDRsSoundSneakEffectivenessCloth'
p1113
I15803914
sS'fDeathForceDamageMin'
p1114
I15803484
sS'sCantEquipGeneric'
p1115
I15803389
sS'fCombatBetweenAdvanceTimer'
p1116
I15803449
sS'iTrainingSkills'
p1117
I15803391
sS'sAutoSaving'
p1118
I15803420
sS'iLevelUp06Mult'
p1119
I15804130
sS'fDispTargetRaceMult'
p1120
I15803512
sS'sHitParticleStone'
p1121
I254602
sS'fMagicArmorPenaltyMin'
p1122
I15803640
sS'fPersJokeResp'
p1123
I15803810
sS'fFightDispBase'
p1124
I15803534
sS'fKnockdownDamageMult'
p1125
I177526
sS'fPerkLightArmorJourneymanDamageMult'
p1126
I15803773
sS'fPlayerDeathReloadTime'
p1127
I85069
sS'fMagicExplosionPowerMax'
p1128
I15803670
sS'fActorTurnAnimMinTime'
p1129
I15803313
sS'sCanNotEquipSoulGem'
p1130
I442724
sS'iSDRsShortRangeMaxBump'
p1131
I15804214
sS'iAIDefaultPowerAttackChance'
p1132
I15804041
sS'fNPCAttributeHealthMult'
p1133
I606274
sS'fPersBoastResp'
p1134
I15803794
sS'fWeatherFlashAmbient'
p1135
I52785
sS'fDamagePowerAttackStandBonus'
p1136
I21080
sS'fArmorRatingBase'
p1137
I15803323
sS'fMagicEnchantmentChargeBase'
p1138
I15803662
sS'fMagicPlayerMinimumInvisibility'
p1139
I15803676
sS'fRepairArmorerBase'
p1140
I15803873
sS'fAICombatFleeScoreThreshold'
p1141
I15803209
sS'fDispTargetWeaponBase'
p1142
I15803513
sS'fDeathForceForceMax'
p1143
I15803485
sS'fFurnitureMarker16HeadingDelta'
p1144
I15803576
sS'fTrackSpeed'
p1145
I15803995
sS'fWeatherTransMin'
p1146
I15804018
sS'sNoCharge'
p1147
I15803427
sS'fAISpectatorCommentTimer'
p1148
I15803294
sS'fCreatureCalcStealth'
p1149
I15803472
sS'fMagicFogMaximumDistance'
p1150
I827329
sS'fClothingJewelryScale'
p1151
I420398
sS'fAIEscortWaitDistanceInterior'
p1152
I15803261
sS'fLockTrapGoOffBase'
p1153
I15803631
sS'iLevelUpSkillCount'
p1154
I15804135
sS'fDifficultyMaxValue'
p1155
I15803496
sS'iSoulLevelValuePetty'
p1156
I32411
sS'fFatigueBlockSkillBase'
p1157
I163741
sS'sDerivedAttributeDescFatigue'
p1158
I308953
sS'fFurnitureMarker15DeltaX'
p1159
I15803569
sS'fFurnitureMarker15DeltaY'
p1160
I15803570
sS'fAIDefaultMaximumRangeMult'
p1161
I15803243
sS'iClassSpellsword'
p1162
I15804090
sS'fDifficultyDamageMultiplier'
p1163
I830809
sS'fJumpFallRiderMult'
p1164
I15803603
sS'iClassAcrobat'
p1165
I15804071
sS'fDamageSkillBase'
p1166
I15803481
sS'fSneakMaxDistance'
p1167
I314068
sS'iPersuasionBribeRefuse'
p1168
I15804164
sS'fNPCGeneticVariation'
p1169
I472115
sS'fMagicExplosionPowerMult'
p1170
I15803672
sS'fSDRsSkillEffectiveSneakCap'
p1171
I15803895
sS'fTrackJustAquiredDuration'
p1172
I15803992
sS'fSkillUseSpecMult'
p1173
I15803951
sS'fBribeBase'
p1174
I807578
sS'fMagicProjectileBaseSpeed'
p1175
I15803385
sS'fMagicAreaScaleMax'
p1176
I15803637
sS'iNPCBasePerLevelHealthMult'
p1177
I817425
sS'fMoveEncumEffect'
p1178
I14524
sS'fAIDefaultDodgeBackwardMaxTime'
p1179
I15803224
sS'fFightFriendDispBase'
p1180
I429511
sS'fFleeDistanceExterior'
p1181
I15803541
sS'fFurnitureMarker15DeltaZ'
p1182
I15803571
sS'fPathSpaceExitPenalty'
p1183
I15803756
sS'fAIDefaultDodgeForwardMinTime'
p1184
I15803230
sS'fMagicResistActorSkillMult'
p1185
I15803680
sS'fMagicCloudSlowdownRate'
p1186
I15803653
sS'fStarsRotateYAxis'
p1187
I840683
sS'fPathPointReachDistance'
p1188
I15803747
sS'fMagicDurMagBaseCostMult'
p1189
I15803661
sS'fPerkAthleticsExpertFatigueMult'
p1190
I15803762
sS'fCrimeDispSteal'
p1191
I15803477
sS'fLockLevelMult'
p1192
I15803623
sS'fWeatherFlashDirectional'
p1193
I15804016
sS'iMaxPlayerSummonedCreatures'
p1194
I15803396
sS'sMonthMidYear'
p1195
I803426
sS'sNoSoulInGem'
p1196
I402661
sS'iSDRsApplyDetectLifeEffects'
p1197
I15804182
sS'fPathPointTurnDistanceExterior'
p1198
I15803750
sS'fBuoyancyMetal'
p1199
I15803434
sS'fCombatGiantCreatureReachMult'
p1200
I432639
sS'iAICombatMinDetection'
p1201
I15804029
sS'fFurnitureMarker13DeltaX'
p1202
I170225
sS'fFurnitureMarker13DeltaY'
p1203
I170223
sS'fFurnitureMarker13DeltaZ'
p1204
I170221
sS'iClassMage'
p1205
I15804082
sS'fMagicResistTargetWillpowerMult'
p1206
I15803682
sS'fMagicSunDamageMinWeather'
p1207
I15803688
sS'fAIYieldDurationMult'
p1208
I15803297
sS'fCombatAdvanceNormalAttackChance'
p1209
I15803448
sS'fRepairArmorerMult'
p1210
I32396
sS'iAICombatRestoreMagickaPercentage'
p1211
I15804032
sS'fReflectedAbsorbChanceReduction'
p1212
I15803868
sS'fNPCBaseMagickaMult'
p1213
I648770
sS'iAllowRechargeDuringCombat'
p1214
I15803384
sS'fSortActorDistanceListTimer'
p1215
I15803959
sS'fSplashSoundTimer'
p1216
I15803970
sS'fAIMinGreetingDistance'
p1217
I15803280
sS'iSDRsSilencePerk'
p1218
I15804217
sS'fActorArmorDesirabilityDamageMult'
p1219
I618496
sS'fDamagePowerAttackBackBonus'
p1220
I21079
sS'fDebrisMaxVelocity'
p1221
I15803488
sS'fDamageToArmorPercentage'
p1222
I21182
sS'fPerkHeavyArmorJourneymanDamageMult'
p1223
I15803767
sS'iMagicMaxPotionsMaster'
p1224
I52185
sS'fArrowAgeMax'
p1225
I15803328
sS'fBuoyancyMultExtremity'
p1226
I15803436
sS'iCrimeAlarmRecDistance'
p1227
I179860
sS'fCombatStaffTimer'
p1228
I15803466
sS'fArrowGravityBase'
p1229
I15803338
sS'fFurnitureMarker11HeadingDelta'
p1230
I178148
sS'fPotionT2CalDurMult'
p1231
I15803852
sS'fMasserZOffset'
p1232
I15803718
sS'iRegionGenRandomnessType'
p1233
I15804181
sS'fPersJokePers'
p1234
I15803809
sS'iAIDistanceRadiusMinLocation'
p1235
I15804050
sS'fMagicTelekinesisMoveMax'
p1236
I15803704
sS'fMagicTelekinesisComplexSpringElasticity'
p1237
I15803699
sS'fMagicTrackingMultBall'
p1238
I15803711
sS'fSneakSkillMult'
p1239
I314936
sS'sWillPowerDescription'
p1240
I377931
sS'fAIPursueDistanceLineOfSight'
p1241
I15803287
sS'iSDRsTalkDialogueRadius'
p1242
I15804221
sS'fHandDamageSkillMult'
p1243
I15803595
sS'fCreatureCalcMagic'
p1244
I15803471
sS'iSDRsTrackingBonus'
p1245
I15804223
sS'iLockLevelMaxHard'
p1246
I15804138
sS'fLockPickAutoBase'
p1247
I49958
sS'fAIInteriorHeadTrackMult'
p1248
I15803270
sS'fVanityModeAutoXSpeed'
p1249
I15804002
sS'fPersuasionMod'
p1250
I648788
sS'fArrowGravityMult'
p1251
I15803340
sS'fAIDefaultPowerAttackFatigueMult'
p1252
I15803246
sS'fMountedMaxLookingDown'
p1253
I15803721
sS'fProjectileKnockMultTrap'
p1254
I15803862
sS'fRumbleHitTime'
p1255
I15803884
sS'fMagicSpellLevelCostBase'
p1256
I15803683
sS'iPersuasionInner'
p1257
I15804170
sS'fBribeSpeechcraftMult'
p1258
I15803371
sS'fDispActorBountyBase'
p1259
I15803498
sS'fFurnitureMarker17DeltaX'
p1260
I15803577
sS'fFurnitureMarker17DeltaY'
p1261
I15803578
sS'fFurnitureMarker17DeltaZ'
p1262
I15803579
sS'iClassBard'
p1263
I15804076
sS'sNoTalkFleeing'
p1264
I841107
sS'fCombatSpeakPowerAttackChance'
p1265
I561149
sS'iClassHealer'
p1266
I15804080
sS'fSneakTargetAttackBonus'
p1267
I246677
sS'fPerkHeavyArmorSinkGravityMult'
p1268
I15803770
sS'fAIIdleAnimationDistance'
p1269
I15803268
sS'fSDRsSoundMultBlade'
p1270
I15803902
sS'fArrowOptimalDistance'
p1271
I15803342
sS'iCrimeGoldMurder'
p1272
I15804100
sS'iRemoveExcessDeadTotalActorCount'
p1273
I15803403
sS'fMagicSprayMaximumDistance'
p1274
I15803685
sS'fAIDefaultDodgeBackNoAttackMult'
p1275
I15803223
sS'fPerkSneakAttackMarksmanNoviceMult'
p1276
I840692
sS'fDispActorBountyMult'
p1277
I15803499
sS'iWortcraftMaxEffectsNovice'
p1278
I15804245
sS'iSDRsDbgNoLOS'
p1279
I15804193
sS'sAddItemtoInventoryText'
p1280
I442721
sS'fPerkAthleticsMasterFatigueMult'
p1281
I15803764
sS'fFatigueReturnBase'
p1282
I160984
sS'iAIFriendlyHitMinDisposition'
p1283
I15804052
sS'fMagicTelekinesisDistanceMin'
p1284
I15803700
sS'fPowerAttackDelay'
p1285
I15803856
sS'fFurnitureMarker18HeadingDelta'
p1286
I15803584
sS'fHandHealthMin'
p1287
I15803598
sS'fSpellCastingDetectionHitActorMod'
p1288
I15803962
sS'fLockSkillBase'
p1289
I15803629
sS'fPCBaseMagickaMult'
p1290
I648751
sS'fTrackFudgeXY'
p1291
I15803990
sS'fPathPointReachDistanceError'
p1292
I15803748
sS'fBlockAmountHandToHandMult'
p1293
I15803361
sS'fScrollCostMult'
p1294
I15803889
sS'fRaceGeneticVariation'
p1295
I15803865
sS'fUnderwaterFullDepth'
p1296
I15803999
sS'fPerkSneakAttackMeleeMasterMult'
p1297
I15803779
sS'fAIDefaultBlockNoAttackMult'
p1298
I14532
sS'iSDRsChamCap'
p1299
I15804183
sS'fRemoveExcessComplexDeadTime'
p1300
I15803407
sS'sAttributeDescSpeed'
p1301
I325208
sS'fChase3rdPersonZUnitsPerSecond'
p1302
I15803386
sS'fCombatVulnerabilityMod'
p1303
I15803468
sS'fCombatSpeakHitThreshold'
p1304
I561151
sS'iSDRsSoundBumpSplash'
p1305
I15804220
sS'fCombatBuffStandoffTimer'
p1306
I15803451
sS'fMagicCloudFindTargetTime'
p1307
I15803650
sS'fPersuasionMinSelect'
p1308
I15803828
sS'iSDRsDbgDLPlayer2NPC'
p1309
I15804192
sS'fPlayerDropDistance'
p1310
I15803846
sS'sAttributeDescAgility'
p1311
I325203
sS'fVanityModeWheelDeadMin'
p1312
I15804007
sS'iCrimeGoldStealHorse'
p1313
I293580
sS'fMoveEncumEffectNoWea'
p1314
I15803722
sS'sNoWaitUnderWater'
p1315
I442736
sS'fBribeScale'
p1316
I833055
sS'fMagicCostScale'
p1317
I840480
sS'fSecundaAngleFadeStart'
p1318
I50734
sS'fMinDistanceUseHorse'
p1319
I15803720
sS'fPathPointFailureTimeLimit'
p1320
I15803744
sS'fShockBranchBoltsRadiusStrength'
p1321
I15803934
sS'fMagicTelekinesiDistanceMult'
p1322
I85088
sS'fShockSegmentLength'
p1323
I15803945
sS'iNumberActorsInCombatPlayer'
p1324
I43527
sS'fCombatMaxHoldScore'
p1325
I15803459
sS'iSDRsHeadlessCantHear'
p1326
I15804205
sS'fAbsorbSegmentLength'
p1327
I15803306
sS'fAIPowerAttackRecoilBonus'
p1328
I172231
sS'fProjectileKnockMultProp'
p1329
I15803861
sS'fAIDefaultIdleMaxTime'
p1330
I15803241
sS'fAIRadiusToRunDetectionInterior'
p1331
I15803289
sS'iArmorDamageShieldChance'
p1332
I15804063
sS'fPerkLightArmorExpertSpeedMult'
p1333
I15803772
sS'fPersBullyWillp'
p1334
I15803804
sS'iUpdateGroups'
p1335
I15804240
sS'fSDRsPeripheralScaling'
p1336
I15803892
sS'fShockBranchBoltsRadius'
p1337
I15803933
sS'iClassArcher'
p1338
I15804073
sS'fPCTurnAnimMinTime'
p1339
I15803760
sS'fAIDefaultPowerAttackUnconsciousBonus'
p1340
I15803248
sS'iSDRsLightingBumpLightSpell'
p1341
I15804210
sS'iSDRsInvisSkillEffPerc'
p1342
I15804208
sS'fAIUpdateMovementRestrictionsDistance'
p1343
I15803295
sS'iPersuasionMaxDisp'
p1344
I15804171
sS'sBloodParticleExtra1'
p1345
I15803416
sS'sBloodParticleExtra2'
p1346
I15803417
sS'fCombatInTheWayTimer'
p1347
I15803457
sS'fFatigueAttackWeaponMult'
p1348
I161052
sS'fBlinkDelayMin'
p1349
I15803358
sS'iSDRsTalkPenalty'
p1350
I15804222
sS'iVampirismAgeOffset'
p1351
I15803401
sS'fJumpHeightMax'
p1352
I454174
sS'iSDRsDetLifeLOSBumpType'
p1353
I15804201
sS'iSDRsDetLifeIntBumpType'
p1354
I15804199
sS'iPerkMarksmanParalyzeChance'
p1355
I15804159
sS'fVanityModeDelay'
p1356
I15804005
sS'fPotionT1AleMagMult'
p1357
I20905
sS'fPersBullyEner'
p1358
I15803799
sS'fTreeNearDistanceBase'
p1359
I147031
sS'fVanityModeYMult'
p1360
I15804010
sS'fVanityModeAutoDelay'
p1361
I507477
sS'sLevelUp15'
p1362
I124570
sS'sLevelUp17'
p1363
I124576
sS'fPersJokeStre'
p1364
I15803811
sS'sLevelUp12'
p1365
I124575
sS'sLevelUp19'
p1366
I124572
sS'sLevelUp18'
p1367
I124571
sS'fAICombatNoAreaEffectAllyDistance'
p1368
I15803210
sS'fProjectileKnockMultBiped'
p1369
I15803859
sS'fAbsorbCoreColorR'
p1370
I3924
sS'fAbsorbCoreColorG'
p1371
I3922
sS'fAbsorbCoreColorB'
p1372
I3921
sS'fCrimeDispPersonal'
p1373
I15803475
sS'fMoveCharWalkMax'
p1374
I66762
sS'fCrimeSoundBase'
p1375
I15803479
sS'fPerkHeavyArmorExpertSpeedMult'
p1376
I15803766
sS'fMasserAngleFadeStart'
p1377
I50737
sS'iSDRsChamSkillEffPerc'
p1378
I15804186
sS'iPersuasionPower1'
p1379
I15804174
sS'iPersuasionPower2'
p1380
I15804175
sS'iPersuasionPower3'
p1381
I15804176
sS'iArmorWeightGreaves'
p1382
I15804067
sS'fHostileActorExteriorDistance'
p1383
I15803399
sS'fSubmergedLinearDampingH'
p1384
I15803974
sS'sHairColor5'
p1385
I840662
sS'sCanNotTrainAnymore'
p1386
I228998
sS'fSubmergedLinearDampingV'
p1387
I15803975
sS'fShockBranchSegmentLength'
p1388
I15803936
sS'fMagicTelekinesisComplexObjectDamping'
p1389
I15803697
sS'fArrowMaxDistance'
p1390
I15803341
sS'fPersAdmireConf'
p1391
I15803782
sS'fTreeWindVariance'
p1392
I85117
sS'fSittingMaxLookingDown'
p1393
I15803948
sS'fDifficultyMinValue'
p1394
I15803497
sS'fAIEngergyLevelMult'
p1395
I15803259
sS'fSDRsSoundMultBow'
p1396
I15803904
sS'fFurnitureMarker12HeadingDelta'
p1397
I178149
sS'fSneakNoticedMin'
p1398
I15803954
sS'fAIDefaultDodgeLeftRightMaxTime'
p1399
I15803233
sS'iLevelUp10Mult'
p1400
I15804134
sS'iAIDefaultPrefersRangedAttacks'
p1401
I15804046
sS'fMaxArmorRating'
p1402
I840890
sS'fKnockdownDamageBase'
p1403
I15803620
sS'iPerkBlockStaggerChance'
p1404
I561152
sS'sMiscSEBounty'
p1405
I285999
sS'iAIDefaultDodgeLeftRightChance'
p1406
I15804035
sS'fAttributeClassSecondaryBonus'
p1407
I15803347
sS'fBlinkUpTime'
p1408
I15803360
sS'fSpellmakingGoldMult'
p1409
I376940
sS'fPerkSneakAttackMarksmanApprenticeMult'
p1410
I840696
sS'sIntellegenceDescription'
p1411
I377928
sS'fSDRsSoundMultStaff'
p1412
I15803909
sS'iMagicMaxPotionsApprentice'
p1413
I52182
sS'fLeveledLockMult'
p1414
I15803621
sS'fDistancetoPlayerforConversations'
p1415
I15803516
sS'fSpeechCraftMult'
p1416
I15803961
sS'iCrimeDaysInPrisonMod'
p1417
I15804097
sS'fMagicExplosionPowerBase'
p1418
I15803669
sS'fSDRsSleepSightMult'
p1419
I15803898
sS'iMagicMaxSummonedCreatureTypes'
p1420
I15804143
sS'iCombatHighPriorityModifier'
p1421
I15804096
sS'iSDRsChamLightEffect'
p1422
I15804184
sS'fClothingClassScale'
p1423
I420397
sS'fMagicCEEnchantMagOffset'
p1424
I15803647
sS'iSDRsInvisSightEffPerc'
p1425
I15804207
ss.