(dp1
S'GMST'
p2
(dp3
S'iSoulLevelValueGrand'
p4
I32408
sS'iLowLevelNPCMaxLevel'
p5
I817426
sS'fPerkSneakAttackMarksmanJourneymanMult'
p6
I840694
sS'sLevelDoneWarning'
p7
I442730
sS'fDamageWeaponMult'
p8
I172229
sS'fAIDefaultSwitchToRangedDistance'
p9
I15803253
sS'fAIInteriorSpectatorDistance'
p10
I15803272
sS'fAISocialRadiusToTriggerConversationInterior'
p11
I15803292
sS'fPickPocketTargetSkillMult'
p12
I43665
sS'iHorseTurnDegreesRampUpPerSecond'
p13
I15803377
sS'fWortcraftChanceLuckDenom'
p14
I786858
sS'fPerkSneakAttackMarksmanExpertMult'
p15
I840695
sS'iCrimeGoldPickpocket'
p16
I15803409
sS'fMagicFatigueDrainBase'
p17
I439110
sS'fMasserAngleShadowEarlyFade'
p18
I50736
sS'fActorSwimBreathDamage'
p19
I15803312
sS'sContinueText'
p20
I442727
sS'fAICombatFleeScoreThreshold'
p21
I15803209
sS'fMoveWeightMax'
p22
I91540
sS'iCrimeGoldTresspass'
p23
I15803411
sS'fVanityModeAutoDelay'
p24
I507477
sS'fHostileActorInteriorDistance'
p25
I15803400
sS'fArrowFOVTimeStart'
p26
I15803335
sS'fFurnitureMarker01HeadingDelta'
p27
I178123
sS'fLeafRustleSpeedSwayInfluence'
p28
I85122
sS'sCanNotEquipAlchemy'
p29
I442722
sS'fBarterDispBase'
p30
I15803350
sS'fSneakRunningMult'
p31
I821675
sS'sNoSoulGem'
p32
I229004
sS'fAbsorbTortuosityVariance'
p33
I15803308
sS'fArrowWeakSpeed'
p34
I15803345
sS'fDamageWeaponConditionBase'
p35
I816663
sS'fSneakBootWeightMult'
p36
I246134
sS'fFurnitureMarker13DeltaX'
p37
I170225
sS'fAIPowerAttackFatigueBase'
p38
I15803283
sS'fFatigueBase'
p39
I172236
sS'sHitParticleWood'
p40
I254603
sS'fSneakTargetInCombatBonus'
p41
I293257
sS'fJumpFallTimeMult'
p42
I454175
sS'sAnimationCanNotEquipWeapon'
p43
I325211
sS'sNoMortor'
p44
I229003
sS'fEssentialDeathTime'
p45
I15803382
sS'fCombatSoundArmorPct'
p46
I177018
sS'fHandFatigueDamageMult'
p47
I376838
sS'fAIDefaultDodgeSpeedMult'
p48
I15803237
sS'sDerivedAttributeDescHealth'
p49
I308954
sS'fRegionGenTexPlacedNotMatch'
p50
I163325
sS'fAIMaxSmileDistance'
p51
I149100
sS'fActorSwimBreathBase'
p52
I1617874
sS'fMagicFatigueDrainMult'
p53
I439109
sS'fAIDodgeWalkChance'
p54
I15803257
sS'sMagicDescription'
p55
I425039
sS'iMasserSize'
p56
I50540
sS'fAIDefaultAttackDuringBlockMult'
p57
I15803217
sS'fBlockAmountWeaponMult'
p58
I15803362
sS'sCantEquipGeneric'
p59
I15803389
sS'fAiAquireKillBase'
p60
I15803316
sS'iTrainingSkills'
p61
I15803391
sS'fSneakLightMult'
p62
I653570
sS'fActorAnimZAdjust'
p63
I15803309
sS'fAIYieldBase'
p64
I165793
sS'sVarlaStoneMessage'
p65
I43502
sS'fAIDefaultAttackDuringUnconsciousBonus'
p66
I15803218
sS'fAIDefaultDodgeFatigueBase'
p67
I15803227
sS'iCrimeGoldAttackMin'
p68
I805415
sS'fFurnitureMarker01DeltaY'
p69
I170210
sS'fFurnitureMarker01DeltaX'
p70
I170213
sS'sNoLockPickKey'
p71
I229002
sS'fFurnitureMarker01DeltaZ'
p72
I170208
sS'sMonthHeartFire'
p73
I803424
sS'fAiAquirePickMult'
p74
I15803319
sS'fSpellCastingDetectionMod'
p75
I49627
sS'sSuccessfulSneakAttackEnd'
p76
I840691
sS'fAIBestHeadTrackDistance'
p77
I15803208
sS'fPlayerDeathReloadTime'
p78
I85069
sS'sDerivedAttributeDescMagicka'
p79
I308955
sS'sNoSleepInOwnedBed'
p80
I841112
sS'fBarterBuyMult'
p81
I15803349
sS'sCanNotTrainHigher'
p82
I442726
sS'fPotionT1AleDurMult'
p83
I20904
sS'fActorTurnAnimMinTime'
p84
I15803313
sS'sCanNotEquipSoulGem'
p85
I442724
sS'fActorStrengthEncumbranceMult'
p86
I66900
sS'fBuoyancyCloth'
p87
I15803372
sS'fAIFleeConfBase'
p88
I165794
sS'fAIDodgeVerticalRangedAttackMult'
p89
I15803256
sS'fWeatherFlashAmbient'
p90
I52785
sS'fAIDefaultDodgeForwardMaxTime'
p91
I15803229
sS'fAIDefaultBlockDuringAttackMult'
p92
I14531
sS'fAIDefaultIdleMinTime'
p93
I15803242
sS'fArmorRatingBase'
p94
I15803323
sS'fDispTargetFactionRankBase'
p95
I165796
sS'fAIDefaultDodgeLeftRightMinTime'
p96
I15803234
sS'iMagicMaxPotionsJourneyman'
p97
I52184
sS'iMagicMaxPotionsNovice'
p98
I52181
sS'sVampireFeedQuestion'
p99
I34487
sS'fBarterDispositionMod'
p100
I15803351
sS'fLockPickAutoDifficulty'
p101
I38824
sS'fChameleonMinRefraction'
p102
I15803379
sS'fChase3rdPersonXYMult'
p103
I816668
sS'sMiscSEBounty'
p104
I285999
sS'fAIPowerAttackNPCChance'
p105
I15803286
sS'fActorLuckSkillMult'
p106
I15803311
sS'sBloodTextureDefault'
p107
I15803412
sS'sNoCharge'
p108
I15803427
sS'fBarterHaggleDispMult'
p109
I15803354
sS'fStarsRotateZAxis'
p110
I840685
sS'sQuickLoading'
p111
I15803426
sS'fStarsRotateXAxis'
p112
I840682
sS'sNoLockPick'
p113
I229001
sS'fAISpectatorCommentTimer'
p114
I15803294
sS'fAIMaxHeadTrackDistanceFromPC'
p115
I15803275
sS'fRemoveExcessDeadTime'
p116
I15803406
sS'fMagicFogMaximumDistance'
p117
I827329
sS'fAIYieldDurationMult'
p118
I15803297
sS'fAIEscortWaitDistanceInterior'
p119
I15803261
sS'fMoveCreatureWalkMax'
p120
I6112
sS'fCombatSpeakHitChance'
p121
I561150
sS'sFavoredAttributes'
p122
I841114
sS'fDamageWeaponConditionMult'
p123
I816664
sS'fFatigueRunMult'
p124
I160986
sS'fPathAvoidanceCreatureIntLimit'
p125
I212591
sS'iSoulLevelValuePetty'
p126
I32411
sS'iArrowMaxRefCount'
p127
I15803375
sS'fMagicSpellLevelMasterMin'
p128
I394082
sS'fFatigueBlockSkillBase'
p129
I163741
sS'sDerivedAttributeDescFatigue'
p130
I308953
sS'sLevelUp15'
p131
I124570
sS'fArrowFakeMass'
p132
I15803337
sS'fAIDefaultOptimalRangeMult'
p133
I15803244
sS'iCrimeGoldTrespass'
p134
I15803410
sS'fSunAlphaTransTime'
p135
I840681
sS'fAIDefaultDodgeBackDuringAttackMult'
p136
I15803222
sS'fDifficultyDamageMultiplier'
p137
I830809
sS'fSneakSoundLosMult'
p138
I314935
sS'fFatigueJumpMult'
p139
I454177
sS'iRemoveExcessDeadComplexTotalActorCount'
p140
I15803404
sS'fArmorWeightLightMaxMod'
p141
I15803327
sS'fSneakMaxDistance'
p142
I314068
sS'fAiAquirePickBase'
p143
I15803318
sS'fNPCGeneticVariation'
p144
I472115
sS'fLeafRockAmountSwayInfluence'
p145
I85118
sS'fMagicSpellLevelExpertMin'
p146
I394081
sS'fPotionT1CalDurMult'
p147
I20906
sS'fCrimeGoldSteal'
p148
I15803392
sS'sReturnToMainMenu'
p149
I817497
sS'fActorArmorDesirabilitySkillMult'
p150
I15803310
sS'fSneakBootWeightBase'
p151
I246133
sS'fPotionT1RetDurMult'
p152
I20907
sS'fFatigueJumpBase'
p153
I454176
sS'iSoulLevelValueCommon'
p154
I32407
sS'fDamageSkillMult'
p155
I20903
sS'fAbsorbBoltGrowWidth'
p156
I15803301
sS'fBribeBase'
p157
I807578
sS'fSkillUseFactor'
p158
I32332
sS'fHandHealthMax'
p159
I172234
sS'fMagicProjectileBaseSpeed'
p160
I15803385
sS'sOverEncumbered'
p161
I1596976
sS'iNPCBasePerLevelHealthMult'
p162
I817425
sS'fFurnitureMarker11DeltaZ'
p163
I170227
sS'fFurnitureMarker11DeltaX'
p164
I170236
sS'fFatigueCastBase'
p165
I425419
sS'fMagicSpellLevelJourneymanMin'
p166
I394080
sS'fMoveEncumEffect'
p167
I14524
sS'fSkillUseExp'
p168
I20897
sS'fAISocialchanceForConversation'
p169
I239862
sS'fRegionGenTexPlacedMatch'
p170
I163324
sS'fAIRadiusToRunDetectionExterior'
p171
I15803288
sS'iLowResponsiblityLevel'
p172
I1005625
sS'fCombatSpeakHitThreshold'
p173
I561151
sS'fRegionGenTexGenMatch'
p174
I163322
sS'fAIDefaultDodgeBackwardMaxTime'
p175
I15803224
sS'sMajorSkills'
p176
I841113
sS'fCombatHitConeAngle'
p177
I165795
sS'fInfamyBountyMod'
p178
I443979
sS'fJumpDoubleMult'
p179
I454173
sS'fAIDefaultDodgeForwardMinTime'
p180
I15803230
sS'fDispActorPerMult'
p181
I165798
sS'fAbsorbBoltsRadius'
p182
I15803303
sS'fFurnitureMarker03DeltaZ'
p183
I120263
sS'fFurnitureMarker03DeltaY'
p184
I120262
sS'fFurnitureMarker03DeltaX'
p185
I120261
sS'fAICombatNoAreaEffectAllyDistance'
p186
I15803210
sS'fAIDefaultMaximumRangeMult'
p187
I15803243
sS'sLevelUp4'
p188
I124574
sS'fMagicLightHeightOffset'
p189
I85108
sS'fDetectionCommentTimer'
p190
I38665
sS'fAIDefaultBuffStandoffDistance'
p191
I15803221
sS'fAIDefaultAttackSkillMult'
p192
I14530
sS'sNoWaitInCombat'
p193
I786859
sS'sPlayerLeavingBorderRegion'
p194
I442738
sS'fLeafRustleAmountSwayInfluence'
p195
I85687
sS'fMoveSneakMult'
p196
I91539
sS'fAICombatSlopeDifference'
p197
I15803212
sS'fMagicDiseaseTransferMult'
p198
I803462
sS'sLevelDefault'
p199
I442729
sS'iMaxPlayerSummonedCreatures'
p200
I15803396
sS'fFirstPersonCameraMult'
p201
I177022
sS'sMonthMidYear'
p202
I803426
sS'fBlockScoreNoShieldMult'
p203
I15803364
sS'fAutoDoorActivateDistance'
p204
I427429
sS'sAttributeDescWillpower'
p205
I325210
sS'fFatigueReturnMult'
p206
I161053
sS'sLowSoul'
p207
I402658
sS'fLeafRockTimeScale'
p208
I85120
sS'fPowerAttackFatiguePenalty'
p209
I172235
sS'fCombatGiantCreatureReachMult'
p210
I432639
sS'fLeafRockSpeedSwayInfluence'
p211
I85119
sS'fPersuasionCurve'
p212
I452267
sS'fFurnitureMarker13DeltaY'
p213
I170223
sS'fFurnitureMarker13DeltaZ'
p214
I170221
sS'fPotionT2AleDurMult'
p215
I20817
sS'sNoHammer'
p216
I229000
sS'fAIDodgeDecisionBase'
p217
I15803254
sS'fAIDefaultPowerAttackRecoilStaggerBonus'
p218
I15803247
sS'fHandFatigueDamageBase'
p219
I376837
sS'fFurnitureMarker14HeadingDelta'
p220
I178150
sS'fFurnitureMarker03HeadingDelta'
p221
I120264
sS'fAICombatTargetUnreachablePriorityMult'
p222
I15803213
sS'fBribeCurve'
p223
I648787
sS'fActorTeleportFadeSeconds'
p224
I228131
sS'fAIMeleeHandMult'
p225
I15803278
sS'fAITrespassWarningTimer'
p226
I22146
sS'fRepairArmorerMult'
p227
I32396
sS'fRechargeGoldMult'
p228
I840735
sS'fAIDefaultAttackSkillBase'
p229
I15803220
sS'fArrowBowTimerMult'
p230
I15803333
sS'sSpecialization'
p231
I841105
sS'iArmorWeightHelmet'
p232
I177020
sS'fArrowBounceLinearSpeed'
p233
I15803330
sS'fAIDefaultHoldMinTime'
p234
I15803240
sS'fNPCBaseMagickaMult'
p235
I648770
sS'fDefaultNoticeTextDisplayTime'
p236
I15803373
sS'iAllowRechargeDuringCombat'
p237
I15803384
sS'fPersuasionReactionDislike'
p238
I840893
sS'fFatigueAttackWeaponBase'
p239
I161051
sS'fDaytimeColorExtension'
p240
I85691
sS'fCombatSpeakAttackChance'
p241
I149347
sS'fAIMinGreetingDistance'
p242
I15803280
sS'fMagicTelekinesiDistanceMult'
p243
I85088
sS'fAIDefaultPowerAttackFatigueBase'
p244
I15803245
sS'fActorArmorDesirabilityDamageMult'
p245
I618496
sS'fDamagePowerAttackBackBonus'
p246
I21079
sS'fAIDefaultDodgeBackwardMinTime'
p247
I15803225
sS'sCanNotEquipQuestArrows'
p248
I18504
sS'fDamageToArmorPercentage'
p249
I21182
sS'sLuckDescription'
p250
I377929
sS'sNoFastTravelCombat'
p251
I827638
sS'iDeathDropWeaponChance'
p252
I261440
sS'iMagicMaxPotionsMaster'
p253
I52185
sS'fArrowAgeMax'
p254
I15803328
sS'fBlinkDownTime'
p255
I15803359
sS'fBribeMult'
p256
I15803369
sS'sImpossibleLock'
p257
I228999
sS'fDamageStrengthMult'
p258
I20901
sS'iArrowInventoryChance'
p259
I15803374
sS'fMagicExplosionAgilityMult'
p260
I1615880
sS'fBarterSellBase'
p261
I9011
sS'fAIYieldMult'
p262
I15803298
sS'iHorseTurnDegreesPerSecond'
p263
I15803376
sS'fFurnitureMarker11HeadingDelta'
p264
I178148
sS'fAlchemyGoldMult'
p265
I15803322
sS'fAIDefaultRushingAttackDistanceMult'
p266
I15803250
sS'fDetectionSneakLightMod'
p267
I43620
sS'fAbsorbBoltsRadiusStrength'
p268
I15803304
sS'fDispTargetPerMult'
p269
I165797
sS'fAISocialRadiusToTriggerConversation'
p270
I50881
sS'sDerivedAttributeDescEncumbrance'
p271
I308952
sS'sAttributeDescEndurance'
p272
I325204
sS'fBarterBuyBase'
p273
I15803348
sS'fClothingJewelryBase'
p274
I98627
sS'fPickPocketActorSkillBase'
p275
I606278
sS'fCombatSoundWeaponPct'
p276
I177016
sS'sFloraSuccessMessage'
p277
I15803422
sS'fSneakSkillMult'
p278
I314936
sS'sWillPowerDescription'
p279
I377931
sS'fBarterSellMult'
p280
I15803356
sS'fAIPursueDistanceLineOfSight'
p281
I15803287
sS'fEnchantmentGoldMult'
p282
I249961
sS'sSoulGemTooSmall'
p283
I809167
sS'iCrimeGoldJailBreak'
p284
I43520
sS'fWortcraftChanceIntDenom'
p285
I786857
sS'fLockPickAutoBase'
p286
I49958
sS'fAIInteriorHeadTrackMult'
p287
I15803270
sS'sEnduranceDescription'
p288
I377927
sS'fPersuasionMod'
p289
I648788
sS'fArrowSpeedMult'
p290
I15803343
sS'fArrowGravityMult'
p291
I15803340
sS'fAIDefaultPowerAttackFatigueMult'
p292
I15803246
sS'iPerkBlockStaggerChance'
p293
I561152
sS'fSunMinimumGlareScale'
p294
I840686
sS'fAIMagicSpellMult'
p295
I15803273
sS'fSneakBaseValue'
p296
I314934
sS'iMapMarkerRevealDistance'
p297
I413589
sS'fAIDefaultAttackDuringRecoilStaggerBonus'
p298
I323876
sS'fAiAquireStealMult'
p299
I15803321
sS'sAddItemtoSpellList'
p300
I34505
sS'fAIDefaultHoldMaxTime'
p301
I15803239
sS'iInventoryAskQuantityAt'
p302
I15803408
sS'fBribeSpeechcraftMult'
p303
I15803371
sS'fAIEscortWaitDistanceExterior'
p304
I15803260
sS'sAutoSaving'
p305
I15803420
sS'sHitParticleStone'
p306
I254602
sS'iAIDefaultBlockChance'
p307
I14528
sS'sNoTalkFleeing'
p308
I841107
sS'sNoSleepCombat'
p309
I442733
sS'fMasserAngleFadeEnd'
p310
I50738
sS'iAIDefaultAttackChance'
p311
I14527
sS'fAItalktoNPCtimer'
p312
I15803299
sS'fMagicTelekinesisLiftPowerMult'
p313
I85089
sS'fRegionGenTexGenNotMatch'
p314
I163323
sS'fAIFleeSuccessTimeout'
p315
I15803266
sS'fBlinkDelayMax'
p316
I15803357
sS'iAllowRepairDuringCombat'
p317
I15803395
sS'fDamageToWeaponPercentage'
p318
I606590
sS'fCombatSpeakPowerAttackChance'
p319
I561149
sS'fAIPowerAttackKnockdownBonus'
p320
I15803285
sS'fSneakTargetAttackBonus'
p321
I246677
sS'sStrengthDescription'
p322
I377932
sS'sNoWaitHostilActorsNear'
p323
I442735
sS'fAIIdleAnimationDistance'
p324
I15803268
sS'fFatigueBlockSkillMult'
p325
I163742
sS'fAIDefaultDodgeForwardWhileAttackingMult'
p326
I15803232
sS'fAIFaceTargetAnimationAngle'
p327
I15803264
sS'fAIInteriorSpectatorDetection'
p328
I15803271
sS'fArrowOptimalDistance'
p329
I15803342
sS'sLoadingArea'
p330
I15803425
sS'fChase3rdPersonVanityXYMult'
p331
I15803381
sS'iRemoveExcessDeadTotalActorCount'
p332
I15803403
sS'sBloodTextureExtra2'
p333
I15803414
sS'sBloodTextureExtra1'
p334
I15803413
sS'sCanNotEquipRepairHammer'
p335
I442723
sS'fArmorRatingConditionBase'
p336
I15803324
sS'fMagicSpellLevelApprenticeMin'
p337
I394079
sS'fFurnitureMarker02DeltaZ'
p338
I177058
sS'fBowHoldTimer'
p339
I15803367
sS'fFurnitureMarker02DeltaX'
p340
I177056
sS'fFurnitureMarker02DeltaY'
p341
I177057
sS'fAIDefaultDodgeBackNoAttackMult'
p342
I15803223
sS'fPerkSneakAttackMarksmanNoviceMult'
p343
I840692
sS'fFurnitureMarker04HeadingDelta'
p344
I120260
sS'fAIDefaultSwitchToMeleeDistance'
p345
I15803252
sS'iMagicMaxPotionsExpert'
p346
I52183
sS'fAIDefaultDodgeForwardNotAttackingMult'
p347
I15803231
sS'sAddItemtoInventoryText'
p348
I442721
sS'fAIDefaultRangedStandoffDistance'
p349
I15803249
sS'fAIMoveDistanceToRecalcFollowPath'
p350
I15803281
sS'sFloraFailureMessage'
p351
I15803421
sS'sNoSleepHostilActorsNear'
p352
I442734
sS'fDistanceProjectileExplosionDetection'
p353
I48613
sS'fMoveCharWalkMin'
p354
I66760
sS'fFurnitureMarker14DeltaZ'
p355
I170241
sS'fFurnitureMarker14DeltaY'
p356
I170242
sS'fFurnitureMarker14DeltaX'
p357
I170246
sS'fFurnitureMarker11DeltaY'
p358
I170228
sS'fFatigueReturnBase'
p359
I160984
sS'fAIDefaultDodgeFatigueMult'
p360
I15803228
sS'sQuickSaving'
p361
I15803423
sS'fArrowGravityBase'
p362
I15803338
sS'fVanityModeWheelMax'
p363
I15803383
sS'fPCBaseMagickaMult'
p364
I648751
sS'sNoSoul'
p365
I402660
sS'fBlockAmountHandToHandMult'
p366
I15803361
sS'fAIAwareofPlayerTimer'
p367
I15803207
sS'sLevelUp20'
p368
I124577
sS'sUnequipItemOnPlayer'
p369
I442740
sS'fPickPocketMaxChance'
p370
I43666
sS'sLockLevelNameImpossible'
p371
I20862
sS'fAIDefaultBlockNoAttackMult'
p372
I14532
sS'sDiscoveredText'
p373
I442728
sS'fVanityModeWheelMult'
p374
I15803387
sS'fBlockSkillMult'
p375
I15803366
sS'fAbsorbSegmentVariance'
p376
I15803307
sS'fRemoveExcessComplexDeadTime'
p377
I15803407
sS'sAttributeDescSpeed'
p378
I325208
sS'fChase3rdPersonZUnitsPerSecond'
p379
I15803386
sS'sTravelQuestion'
p380
I442739
sS'fAbsorbMoveSpeed'
p381
I15803305
sS'fStatsHealthStartMult'
p382
I1047169
sS'fArrowFOVTimeChange'
p383
I15803334
sS'iLevCreaLevelDifferenceMax'
p384
I21173
sS'sCombatDescription'
p385
I425037
sS'fPotionT3AleMagMult'
p386
I20806
sS'sNoWaitWhileAlarmSounding'
p387
I402662
sS'fAIDefaultDodgeSpeedBase'
p388
I15803236
sS'fAIConversationExploreTime'
p389
I15803215
sS'fFightAggrBase'
p390
I91541
sS'fFatigueMult'
p391
I172237
sS'fHandReachMult'
p392
I836068
sS'fSneakSleepBonus'
p393
I32395
sS'fAIMagicTimer'
p394
I15803274
sS'sAttributeDescAgility'
p395
I325203
sS'fDamagePowerAttackForwardBonus'
p396
I21082
sS'sStealthDescription'
p397
I425038
sS'fArrowWeakGravity'
p398
I15803344
sS'sMiscNumPlacesDiscovered'
p399
I840405
sS'sAttributeDescLuck'
p400
I325206
sS'fAIMeleeWeaponMult'
p401
I15803279
sS'fAiAquireStealBase'
p402
I15803320
sS'sHairColor15'
p403
I840672
sS'sHairColor14'
p404
I840671
sS'sHairColor13'
p405
I840670
sS'sHairColor12'
p406
I840669
sS'fMoveRunMult'
p407
I66764
sS'sHairColor10'
p408
I840667
sS'sMonthRainsHand'
p409
I803425
sS'iCrimeGoldStealHorse'
p410
I293580
sS'fAIDefaultBlockSkillMult'
p411
I14529
sS'fAIFleeHealthMult'
p412
I165792
sS'iSoulLevelValueLesser'
p413
I32410
sS'fBribeScale'
p414
I833055
sS'fKnockdownChance'
p415
I163740
sS'sDropEquippedItemWarning'
p416
I402656
sS'fArrowBounceRotateSpeed'
p417
I15803331
sS'iAINumberActorsComplexScene'
p418
I15803398
sS'fClothingJewelryScale'
p419
I420398
sS'fArrowFOVZoom'
p420
I15803336
sS'fAIRangedWeaponMult'
p421
I15803291
sS'sKeyLocked'
p422
I402657
sS'fAbsorbGlowColorR'
p423
I3918
sS'sHairColor11'
p424
I840668
sS'fBarterHaggleCurve'
p425
I15803353
sS'fAIExteriorSpectatorDistance'
p426
I15803263
sS'fAbsorbGlowColorB'
p427
I3920
sS'fAbsorbGlowColorG'
p428
I3919
sS'iNumberActorsInCombatPlayer'
p429
I43527
sS'fKnockdownDamageMult'
p430
I177526
sS'fAbsorbSegmentLength'
p431
I15803306
sS'fAISocialchanceForConversationInterior'
p432
I15803293
sS'fAIPowerAttackRecoilBonus'
p433
I172231
sS'fArrowGravityMin'
p434
I15803339
sS'fAIDefaultIdleMaxTime'
p435
I15803241
sS'fAIEnergyLevelBase'
p436
I15803258
sS'fPerkSneakAttackMarksmanMasterMult'
p437
I840693
sS'iArmorWeightShield'
p438
I177019
sS'sOpenWithKey'
p439
I442737
sS'fMagicCasterSkillCostBase'
p440
I443980
sS'iAllowAlchemyDuringCombat'
p441
I15803393
sS'fCombatSoundFleshPct'
p442
I177017
sS'fMagicFogOptimalDistance'
p443
I827330
sS'sLoadWhilePlaying'
p444
I442732
sS'fSpellmakingGoldMult'
p445
I376940
sS'fPerkSneakAttackMarksmanApprenticeMult'
p446
I840696
sS'fTorchLightLevelMorning'
p447
I50135
sS'fAIIdleWaitTime'
p448
I15803269
sS'fAIMeleeArmorMult'
p449
I15803277
sS'fBlinkDelayMin'
p450
I15803358
sS'fDamagePowerAttackBonus'
p451
I172228
sS'fMagickaReturnMult'
p452
I228130
sS'fAIDefaultPowerAttackUnconsciousBonus'
p453
I15803248
sS'fBlockSkillBase'
p454
I15803365
sS'sAttributeDescIntelligence'
p455
I325205
sS'fArrowBowTimerBase'
p456
I15803332
sS'fAIUpdateMovementRestrictionsDistance'
p457
I15803295
sS'iRemoveExcessDeadCount'
p458
I15803402
sS'fAIExteriorSpectatorDetection'
p459
I15803262
sS'fFurnitureMarker12DeltaY'
p460
I170219
sS'fFurnitureMarker12DeltaX'
p461
I170220
sS'fFurnitureMarker12DeltaZ'
p462
I170218
sS'fFatigueRunBase'
p463
I160985
sS'fSpeechDelay'
p464
I165799
sS'sBloodParticleExtra1'
p465
I15803416
sS'sBloodParticleExtra2'
p466
I15803417
sS'fLeafRustleTimeScale'
p467
I85121
sS'iNumberActorsAllowedToFollowPlayer'
p468
I15803394
sS'fFatigueAttackWeaponMult'
p469
I161052
sS'iAllyHitAllowed'
p470
I15803419
sS'fAICombatNoTargetLOSPriorityMult'
p471
I15803211
sS'iVampirismAgeOffset'
p472
I15803401
sS'fJumpHeightMax'
p473
I454174
sS'fAbsorbBoltSmallWidth'
p474
I15803302
sS'fDialogSpeachDelay'
p475
I98725
sS'fImpactShaderMaxMagnitude'
p476
I14852
sS'fBarterHaggleMax'
p477
I15803355
sS'fAIGreetingTimer'
p478
I15803267
sS'sPersonalityDescription'
p479
I377930
sS'fCrimeAlarmRespMult'
p480
I805416
sS'fSecundaAngleShadowEarlyFade'
p481
I50735
sS'fPotionT1AleMagMult'
p482
I20905
sS'fAIMaxHeadTrackDistance'
p483
I149101
sS'fTreeNearDistanceBase'
p484
I147031
sS'fArmorRatingMax'
p485
I15803326
sS'fStarsRotateYAxis'
p486
I840683
sS'fPickPocketActorSkillMult'
p487
I43667
sS'sAttributeDescPersonality'
p488
I325207
sS'fTrainingCostMult'
p489
I1151956
sS'fAIDefaultGroupStandoffDistance'
p490
I15803238
sS'fWeatherTransMax'
p491
I299963
sS'fMagickaReturnBase'
p492
I228129
sS'sAgilityDescription'
p493
I325212
sS'sLevelUp17'
p494
I124576
sS'sLevelUp11'
p495
I442731
sS'sLevelUp12'
p496
I124575
sS'fFurnitureMarker04DeltaX'
p497
I120257
sS'fFurnitureMarker04DeltaY'
p498
I120258
sS'fFurnitureMarker04DeltaZ'
p499
I120259
sS'sLevelUp19'
p500
I124572
sS'sLevelUp18'
p501
I124571
sS'fAIFleeConfMult'
p502
I15803265
sS'fNPCAttributeHealthMult'
p503
I606274
sS'sFastTravelHorseatGate'
p504
I15803424
sS'fAbsorbCoreColorR'
p505
I3924
sS'sCanNotReadBood'
p506
I442725
sS'fAIDefaultDodgeDuringAttackMult'
p507
I15803226
sS'fAbsorbCoreColorG'
p508
I3922
sS'fAbsorbCoreColorB'
p509
I3921
sS'fDyingTimer'
p510
I840490
sS'fAIDodgeFavorLeftRightMult'
p511
I15803255
sS'fBribeCostCurve'
p512
I15803368
sS'fMoveCharWalkMax'
p513
I66762
sS'fDamagePowerAttackStandBonus'
p514
I21080
sS'fStarsRotateDays'
p515
I840684
sS'sLevelUp6'
p516
I124573
sS'fAIMaxWanderTime'
p517
I15803276
sS'fBarterHaggleBase'
p518
I15803352
sS'fPersuasionReactionHate'
p519
I840892
sS'fAIPowerAttackCreatureChance'
p520
I15803282
sS'iSoulLevelValueGreater'
p521
I32409
sS'fActorWeaponDesirabilityDamageMult'
p522
I15803314
sS'fWeatherFlashDuration'
p523
I52786
sS'IAllyHitAllowed'
p524
I15803418
sS'fPotionGoldValueMult'
p525
I83600
sS'fMasserAngleFadeStart'
p526
I50737
sS'fSunReduceGlareSpeed'
p527
I803458
sS'fFightFriendDispBase'
p528
I429511
sS'fAIDefaultAttackHandBonus'
p529
I15803219
sS'fBlockMax'
p530
I15803363
sS'fAIDefaultSpeechMult'
p531
I15803251
sS'fAIYieldDurationBase'
p532
I15803296
sS'fHostileActorExteriorDistance'
p533
I15803399
sS'sNoWaitUnderWater'
p534
I442736
sS'fAIAcquireObjectDistance'
p535
I15803206
sS'sEssentialCharacterDown'
p536
I85306
sS'iMapMarkerVisibleDistance'
p537
I413590
sS'sCanNotTrainAnymore'
p538
I228998
sS'iHoursToRespawnCell'
p539
I15803380
sS'iCrimeAlarmRecDistance'
p540
I179860
sS'fArrowMaxDistance'
p541
I15803341
sS'fFurnitureMarker13HeadingDelta'
p542
I201642
sS'fSecundaSpeed'
p543
I463286
sS'sAddItemtoInventory'
p544
I442720
sS'iPerkExtraBarterGoldMaster'
p545
I20863
sS'fMagicLightRadiusBase'
p546
I85109
sS'fMoveNoWeaponMult'
p547
I14525
sS'fTreeWindVariance'
p548
I85117
sS'fAIPowerAttackFatigueMult'
p549
I15803284
sS'fBribeNPCLevelMult'
p550
I15803370
sS'fActorWeaponDesirabilitySkillMult'
p551
I15803315
sS'sNoFastTravelScriptBlock'
p552
I402659
sS'fAIEngergyLevelMult'
p553
I15803259
sS'fArrowBounceBlockPercentage'
p554
I15803329
sS'fAItalktosameNPCtimer'
p555
I15803300
sS'fFurnitureMarker12HeadingDelta'
p556
I178149
sS'fActorSwimBreathMult'
p557
I1617875
sS'fAIDefaultDodgeLeftRightMaxTime'
p558
I15803233
sS'fAIDefaultAttackDuringAttackMult'
p559
I15803216
sS'fSecundaAngleFadeEnd'
p560
I50733
sS'fArmorRatingConditionMult'
p561
I15803325
sS'fRepairCostMult'
p562
I15803390
sS'fPickPocketAmountMult'
p563
I606277
sS'fMaxArmorRating'
p564
I840890
sS'fMagicCasterSkillCostMult'
p565
I443981
sS'iAICombatMaxAllySummonCount'
p566
I15803397
sS'fTorchLightLevelNight'
p567
I50134
sS'sAnimationCanNotUnequip'
p568
I402655
sS'fFurnitureMarker02HeadingDelta'
p569
I185116
sS'sAttributeDescStrength'
p570
I325209
sS'fMagicCostScale'
p571
I840480
sS'fSecundaAngleFadeStart'
p572
I50734
sS'fTreeFarDistanceBase'
p573
I147029
sS'fAttributeClassSecondaryBonus'
p574
I15803347
sS'fAttributeClassPrimaryBonus'
p575
I15803346
sS'fBlinkUpTime'
p576
I15803360
sS'fAiAquireKillMult'
p577
I15803317
sS'fAIRadiusToRunDetectionInterior'
p578
I15803289
sS'sBloodParticleDefault'
p579
I15803415
sS'fIdleChatterCommentTimer'
p580
I618495
sS'sNoSoulInGem'
p581
I402661
sS'fAIDefaultDodgeNoAttackMult'
p582
I15803235
sS'iPCStartSpellSkillLevel'
p583
I822215
sS'sIntellegenceDescription'
p584
I377928
sS'fDamagePowerAttackSideBonus'
p585
I21081
sS'sHitParticleMetal'
p586
I254604
sS'iMagicMaxPotionsApprentice'
p587
I52182
sS'fChameleonMaxRefraction'
p588
I15803378
sS'fAICombatUnreachableTargetPriorityMult'
p589
I15803214
sS'fDamageStrengthBase'
p590
I20900
sS'fMoveCreatureWalkMin'
p591
I2243
sS'sHairColor9'
p592
I840666
sS'sHairColor8'
p593
I840665
sS'sHairColor3'
p594
I840660
sS'sHairColor2'
p595
I840659
sS'sHairColor1'
p596
I840658
sS'sHairColor0'
p597
I840657
sS'sHairColor7'
p598
I840664
sS'sHairColor6'
p599
I840663
sS'sHairColor5'
p600
I840662
sS'sHairColor4'
p601
I840661
sS'fLowLevelNPCBaseHealthMult'
p602
I817427
sS'fAIRangMagicSpellMult'
p603
I15803290
sS'fClothingClassScale'
p604
I420397
sS'iLevItemLevelDifferenceMax'
p605
I21174
sS'fVanityModeWheelMin'
p606
I15803388
sS'iRemoveExcessDeadComplexCount'
p607
I15803405
ss.
